---
triple:          'x86_64-apple-darwin'
binary-path:     '/Users/mauricioapaza/Desktop/Lab5/main'
relocations:
  - { offsetInCU: 0x9765, offset: 0x9765, size: 0x8, addend: 0x0, symName: __ZNSt3__17advanceB7v160006IPfmmvEEvRT_T0_, symObjAddr: 0x76C0, symBinAddr: 0x100008430, symSize: 0x50 }
  - { offsetInCU: 0x9AF3, offset: 0x9AF3, size: 0x8, addend: 0x0, symName: __ZNSt3__124__put_character_sequenceB7v160006IcNS_11char_traitsIcEEEERNS_13basic_ostreamIT_T0_EES7_PKS4_m, symObjAddr: 0x91D0, symBinAddr: 0x100009F40, symSize: 0x1F0 }
  - { offsetInCU: 0xAB8A, offset: 0xAB8A, size: 0x8, addend: 0x0, symName: __ZNSt3__19make_pairB7v160006IRNS_6vectorINS1_INS_4pairINS1_IfNS_9allocatorIfEEEENS_12basic_stringIcNS_11char_traitsIcEENS3_IcEEEEEENS3_ISB_EEEENS3_ISD_EEEERSD_EENS2_INS_18__unwrap_ref_decayIT_E4typeENSI_IT0_E4typeEEEOSJ_OSM_, symObjAddr: 0x820, symBinAddr: 0x100001590, symSize: 0x40 }
  - { offsetInCU: 0xB3F7, offset: 0xB3F7, size: 0x8, addend: 0x0, symName: __ZNSt3__1lsB7v160006INS_11char_traitsIcEEEERNS_13basic_ostreamIcT_EES6_PKc, symObjAddr: 0xFC0, symBinAddr: 0x100001D30, symSize: 0x40 }
  - { offsetInCU: 0xB5A8, offset: 0xB5A8, size: 0x8, addend: 0x0, symName: __ZNSt3__17getlineB7v160006IcNS_11char_traitsIcEENS_9allocatorIcEEEERNS_13basic_istreamIT_T0_EES9_RNS_12basic_stringIS6_S7_T1_EE, symObjAddr: 0x19C0, symBinAddr: 0x100002730, symSize: 0x50 }
  - { offsetInCU: 0xB7D7, offset: 0xB7D7, size: 0x8, addend: 0x0, symName: __ZNSt3__17getlineB7v160006IcNS_11char_traitsIcEENS_9allocatorIcEEEERNS_13basic_istreamIT_T0_EES9_RNS_12basic_stringIS6_S7_T1_EES6_, symObjAddr: 0x1B40, symBinAddr: 0x1000028B0, symSize: 0x220 }
  - { offsetInCU: 0xB895, offset: 0xB895, size: 0x8, addend: 0x0, symName: __ZNSt3__1rsB7v160006INS_19basic_istringstreamIcNS_11char_traitsIcEENS_9allocatorIcEEEERfvEEOT_S9_OT0_, symObjAddr: 0x1D60, symBinAddr: 0x100002AD0, symSize: 0x30 }
  - { offsetInCU: 0xB8E5, offset: 0xB8E5, size: 0x8, addend: 0x0, symName: __ZNSt3__19make_pairB7v160006IRNS_6vectorIfNS_9allocatorIfEEEERNS_12basic_stringIcNS_11char_traitsIcEENS2_IcEEEEEENS_4pairINS_18__unwrap_ref_decayIT_E4typeENSD_IT0_E4typeEEEOSE_OSH_, symObjAddr: 0x1F10, symBinAddr: 0x100002C80, symSize: 0x40 }
  - { offsetInCU: 0xBA29, offset: 0xBA29, size: 0x8, addend: 0x0, symName: __ZNSt3__122__make_exception_guardB7v160006INS_6vectorINS1_INS_4pairINS1_IfNS_9allocatorIfEEEENS_12basic_stringIcNS_11char_traitsIcEENS3_IcEEEEEENS3_ISB_EEEENS3_ISD_EEE16__destroy_vectorEEENS_28__exception_guard_exceptionsIT_EESI_, symObjAddr: 0x22C0, symBinAddr: 0x100003030, symSize: 0x40 }
  - { offsetInCU: 0xBA5E, offset: 0xBA5E, size: 0x8, addend: 0x0, symName: __ZNSt3__119__debug_db_insert_cB7v160006INS_6vectorINS1_INS_4pairINS1_IfNS_9allocatorIfEEEENS_12basic_stringIcNS_11char_traitsIcEENS3_IcEEEEEENS3_ISB_EEEENS3_ISD_EEEEEEvPT_, symObjAddr: 0x2330, symBinAddr: 0x1000030A0, symSize: 0x10 }
  - { offsetInCU: 0xBA8F, offset: 0xBA8F, size: 0x8, addend: 0x0, symName: __ZNSt3__119__allocate_at_leastB7v160006INS_9allocatorINS_6vectorINS_4pairINS2_IfNS1_IfEEEENS_12basic_stringIcNS_11char_traitsIcEENS1_IcEEEEEENS1_ISB_EEEEEEEENS_19__allocation_resultINS_16allocator_traitsIT_E7pointerEEERSH_m, symObjAddr: 0x2640, symBinAddr: 0x1000033B0, symSize: 0x40 }
  - { offsetInCU: 0xBAD2, offset: 0xBAD2, size: 0x8, addend: 0x0, symName: __ZNSt3__13minB7v160006ImEERKT_S3_S3_, symObjAddr: 0x2760, symBinAddr: 0x1000034D0, symSize: 0x30 }
  - { offsetInCU: 0xBD16, offset: 0xBD16, size: 0x8, addend: 0x0, symName: __ZNSt3__13minB7v160006ImNS_6__lessImmEEEERKT_S5_S5_T0_, symObjAddr: 0x27D0, symBinAddr: 0x100003540, symSize: 0x50 }
  - { offsetInCU: 0xBDAB, offset: 0xBDAB, size: 0x8, addend: 0x0, symName: __ZNSt3__120__throw_length_errorB7v160006EPKc, symObjAddr: 0x2880, symBinAddr: 0x1000035F0, symSize: 0x70 }
  - { offsetInCU: 0xBDD3, offset: 0xBDD3, size: 0x8, addend: 0x0, symName: __ZNSt3__117__libcpp_allocateB7v160006Emm, symObjAddr: 0x29F0, symBinAddr: 0x100003760, symSize: 0x20 }
  - { offsetInCU: 0xBE10, offset: 0xBE10, size: 0x8, addend: 0x0, symName: __ZNSt3__121__libcpp_operator_newB7v160006IJmEEEPvDpT_, symObjAddr: 0x2A10, symBinAddr: 0x100003780, symSize: 0x20 }
  - { offsetInCU: 0xBE49, offset: 0xBE49, size: 0x8, addend: 0x0, symName: __ZNSt3__112__to_addressB7v160006INS_6vectorINS_4pairINS1_IfNS_9allocatorIfEEEENS_12basic_stringIcNS_11char_traitsIcEENS3_IcEEEEEENS3_ISB_EEEEEEPT_SF_, symObjAddr: 0x2B10, symBinAddr: 0x100003880, symSize: 0x10 }
  - { offsetInCU: 0xBE7E, offset: 0xBE7E, size: 0x8, addend: 0x0, symName: __ZNSt3__130__uninitialized_allocator_copyB7v160006INS_9allocatorINS_6vectorINS_4pairINS2_IfNS1_IfEEEENS_12basic_stringIcNS_11char_traitsIcEENS1_IcEEEEEENS1_ISB_EEEEEEPSD_SF_SF_EET2_RT_T0_T1_SG_, symObjAddr: 0x2BA0, symBinAddr: 0x100003910, symSize: 0x100 }
  - { offsetInCU: 0xBF1C, offset: 0xBF1C, size: 0x8, addend: 0x0, symName: __ZNSt3__122__make_exception_guardB7v160006INS_29_AllocatorDestroyRangeReverseINS_9allocatorINS_6vectorINS_4pairINS3_IfNS2_IfEEEENS_12basic_stringIcNS_11char_traitsIcEENS2_IcEEEEEENS2_ISC_EEEEEEPSE_EEEENS_28__exception_guard_exceptionsIT_EESJ_, symObjAddr: 0x2D00, symBinAddr: 0x100003A70, symSize: 0x60 }
  - { offsetInCU: 0xBF51, offset: 0xBF51, size: 0x8, addend: 0x0, symName: __ZNSt3__119__allocator_destroyB7v160006INS_9allocatorINS_6vectorINS_4pairINS2_IfNS1_IfEEEENS_12basic_stringIcNS_11char_traitsIcEENS1_IcEEEEEENS1_ISB_EEEEEENS_16reverse_iteratorIPSD_EESH_EEvRT_T0_T1_, symObjAddr: 0x2F90, symBinAddr: 0x100003D00, symSize: 0x70 }
  - { offsetInCU: 0xBFB4, offset: 0xBFB4, size: 0x8, addend: 0x0, symName: __ZNSt3__1neB7v160006IPNS_6vectorINS_4pairINS1_IfNS_9allocatorIfEEEENS_12basic_stringIcNS_11char_traitsIcEENS3_IcEEEEEENS3_ISB_EEEESE_EEbRKNS_16reverse_iteratorIT_EERKNSF_IT0_EE, symObjAddr: 0x3030, symBinAddr: 0x100003DA0, symSize: 0x40 }
  - { offsetInCU: 0xC000, offset: 0xC000, size: 0x8, addend: 0x0, symName: __ZNSt3__112__to_addressB7v160006INS_16reverse_iteratorIPNS_6vectorINS_4pairINS2_IfNS_9allocatorIfEEEENS_12basic_stringIcNS_11char_traitsIcEENS4_IcEEEEEENS4_ISC_EEEEEEvEENS_5decayIDTclsr19__to_address_helperIT_EE6__callclsr3stdE7declvalIRKSI_EEEEE4typeESK_, symObjAddr: 0x30A0, symBinAddr: 0x100003E10, symSize: 0x20 }
  - { offsetInCU: 0xC05F, offset: 0xC05F, size: 0x8, addend: 0x0, symName: __ZNSt3__118__debug_db_erase_cB7v160006INS_6vectorINS1_INS_4pairINS1_IfNS_9allocatorIfEEEENS_12basic_stringIcNS_11char_traitsIcEENS3_IcEEEEEENS3_ISB_EEEENS3_ISD_EEEEEEvPT_, symObjAddr: 0x3380, symBinAddr: 0x1000040F0, symSize: 0x10 }
  - { offsetInCU: 0xC090, offset: 0xC090, size: 0x8, addend: 0x0, symName: __ZNSt3__119__libcpp_deallocateB7v160006EPvmm, symObjAddr: 0x34B0, symBinAddr: 0x100004220, symSize: 0x30 }
  - { offsetInCU: 0xC0D8, offset: 0xC0D8, size: 0x8, addend: 0x0, symName: __ZNSt3__127__do_deallocate_handle_sizeB7v160006IJEEEvPvmDpT_, symObjAddr: 0x34E0, symBinAddr: 0x100004250, symSize: 0x20 }
  - { offsetInCU: 0xC116, offset: 0xC116, size: 0x8, addend: 0x0, symName: __ZNSt3__124__libcpp_operator_deleteB7v160006IJPvEEEvDpT_, symObjAddr: 0x3500, symBinAddr: 0x100004270, symSize: 0x20 }
  - { offsetInCU: 0xC14B, offset: 0xC14B, size: 0x8, addend: 0x0, symName: __ZNSt3__122__make_exception_guardB7v160006INS_6vectorINS_4pairINS1_IfNS_9allocatorIfEEEENS_12basic_stringIcNS_11char_traitsIcEENS3_IcEEEEEENS3_ISB_EEE16__destroy_vectorEEENS_28__exception_guard_exceptionsIT_EESG_, symObjAddr: 0x3690, symBinAddr: 0x100004400, symSize: 0x40 }
  - { offsetInCU: 0xC180, offset: 0xC180, size: 0x8, addend: 0x0, symName: __ZNSt3__119__debug_db_insert_cB7v160006INS_6vectorINS_4pairINS1_IfNS_9allocatorIfEEEENS_12basic_stringIcNS_11char_traitsIcEENS3_IcEEEEEENS3_ISB_EEEEEEvPT_, symObjAddr: 0x3700, symBinAddr: 0x100004470, symSize: 0x10 }
  - { offsetInCU: 0xC1B1, offset: 0xC1B1, size: 0x8, addend: 0x0, symName: __ZNSt3__119__allocate_at_leastB7v160006INS_9allocatorINS_4pairINS_6vectorIfNS1_IfEEEENS_12basic_stringIcNS_11char_traitsIcEENS1_IcEEEEEEEEEENS_19__allocation_resultINS_16allocator_traitsIT_E7pointerEEERSF_m, symObjAddr: 0x3A10, symBinAddr: 0x100004780, symSize: 0x40 }
  - { offsetInCU: 0xC1F4, offset: 0xC1F4, size: 0x8, addend: 0x0, symName: __ZNSt3__112__to_addressB7v160006INS_4pairINS_6vectorIfNS_9allocatorIfEEEENS_12basic_stringIcNS_11char_traitsIcEENS3_IcEEEEEEEEPT_SD_, symObjAddr: 0x3CA0, symBinAddr: 0x100004A10, symSize: 0x10 }
  - { offsetInCU: 0xC229, offset: 0xC229, size: 0x8, addend: 0x0, symName: __ZNSt3__130__uninitialized_allocator_copyB7v160006INS_9allocatorINS_4pairINS_6vectorIfNS1_IfEEEENS_12basic_stringIcNS_11char_traitsIcEENS1_IcEEEEEEEEPSB_SD_SD_EET2_RT_T0_T1_SE_, symObjAddr: 0x3D30, symBinAddr: 0x100004AA0, symSize: 0x100 }
  - { offsetInCU: 0xC2C7, offset: 0xC2C7, size: 0x8, addend: 0x0, symName: __ZNSt3__122__make_exception_guardB7v160006INS_29_AllocatorDestroyRangeReverseINS_9allocatorINS_4pairINS_6vectorIfNS2_IfEEEENS_12basic_stringIcNS_11char_traitsIcEENS2_IcEEEEEEEEPSC_EEEENS_28__exception_guard_exceptionsIT_EESH_, symObjAddr: 0x3E90, symBinAddr: 0x100004C00, symSize: 0x60 }
  - { offsetInCU: 0xC2FC, offset: 0xC2FC, size: 0x8, addend: 0x0, symName: __ZNSt3__122__make_exception_guardB7v160006INS_6vectorIfNS_9allocatorIfEEE16__destroy_vectorEEENS_28__exception_guard_exceptionsIT_EES7_, symObjAddr: 0x42B0, symBinAddr: 0x100005020, symSize: 0x40 }
  - { offsetInCU: 0xC331, offset: 0xC331, size: 0x8, addend: 0x0, symName: __ZNSt3__119__debug_db_insert_cB7v160006INS_6vectorIfNS_9allocatorIfEEEEEEvPT_, symObjAddr: 0x4320, symBinAddr: 0x100005090, symSize: 0x10 }
  - { offsetInCU: 0xC362, offset: 0xC362, size: 0x8, addend: 0x0, symName: __ZNSt3__119__allocate_at_leastB7v160006INS_9allocatorIfEEEENS_19__allocation_resultINS_16allocator_traitsIT_E7pointerEEERS5_m, symObjAddr: 0x4630, symBinAddr: 0x1000053A0, symSize: 0x40 }
  - { offsetInCU: 0xC3A5, offset: 0xC3A5, size: 0x8, addend: 0x0, symName: __ZNSt3__112__to_addressB7v160006IfEEPT_S2_, symObjAddr: 0x48C0, symBinAddr: 0x100005630, symSize: 0x10 }
  - { offsetInCU: 0xC3DA, offset: 0xC3DA, size: 0x8, addend: 0x0, symName: __ZNSt3__130__uninitialized_allocator_copyB7v160006INS_9allocatorIfEEPfS3_S3_EET2_RT_T0_T1_S4_, symObjAddr: 0x4950, symBinAddr: 0x1000056C0, symSize: 0x100 }
  - { offsetInCU: 0xC478, offset: 0xC478, size: 0x8, addend: 0x0, symName: __ZNSt3__122__make_exception_guardB7v160006INS_29_AllocatorDestroyRangeReverseINS_9allocatorIfEEPfEEEENS_28__exception_guard_exceptionsIT_EES7_, symObjAddr: 0x4AB0, symBinAddr: 0x100005820, symSize: 0x60 }
  - { offsetInCU: 0xC4AD, offset: 0xC4AD, size: 0x8, addend: 0x0, symName: __ZNSt3__119__allocator_destroyB7v160006INS_9allocatorIfEENS_16reverse_iteratorIPfEES5_EEvRT_T0_T1_, symObjAddr: 0x4D40, symBinAddr: 0x100005AB0, symSize: 0x70 }
  - { offsetInCU: 0xC510, offset: 0xC510, size: 0x8, addend: 0x0, symName: __ZNSt3__1neB7v160006IPfS1_EEbRKNS_16reverse_iteratorIT_EERKNS2_IT0_EE, symObjAddr: 0x4DE0, symBinAddr: 0x100005B50, symSize: 0x40 }
  - { offsetInCU: 0xC55C, offset: 0xC55C, size: 0x8, addend: 0x0, symName: __ZNSt3__112__to_addressB7v160006INS_16reverse_iteratorIPfEEvEENS_5decayIDTclsr19__to_address_helperIT_EE6__callclsr3stdE7declvalIRKS5_EEEEE4typeES7_, symObjAddr: 0x4E50, symBinAddr: 0x100005BC0, symSize: 0x20 }
  - { offsetInCU: 0xC5BB, offset: 0xC5BB, size: 0x8, addend: 0x0, symName: __ZNSt3__118__debug_db_erase_cB7v160006INS_6vectorIfNS_9allocatorIfEEEEEEvPT_, symObjAddr: 0x5120, symBinAddr: 0x100005E90, symSize: 0x10 }
  - { offsetInCU: 0xC5EC, offset: 0xC5EC, size: 0x8, addend: 0x0, symName: __ZNSt3__119__allocator_destroyB7v160006INS_9allocatorINS_4pairINS_6vectorIfNS1_IfEEEENS_12basic_stringIcNS_11char_traitsIcEENS1_IcEEEEEEEENS_16reverse_iteratorIPSB_EESF_EEvRT_T0_T1_, symObjAddr: 0x52E0, symBinAddr: 0x100006050, symSize: 0x70 }
  - { offsetInCU: 0xC64F, offset: 0xC64F, size: 0x8, addend: 0x0, symName: __ZNSt3__1neB7v160006IPNS_4pairINS_6vectorIfNS_9allocatorIfEEEENS_12basic_stringIcNS_11char_traitsIcEENS3_IcEEEEEESC_EEbRKNS_16reverse_iteratorIT_EERKNSD_IT0_EE, symObjAddr: 0x5380, symBinAddr: 0x1000060F0, symSize: 0x40 }
  - { offsetInCU: 0xC69B, offset: 0xC69B, size: 0x8, addend: 0x0, symName: __ZNSt3__112__to_addressB7v160006INS_16reverse_iteratorIPNS_4pairINS_6vectorIfNS_9allocatorIfEEEENS_12basic_stringIcNS_11char_traitsIcEENS4_IcEEEEEEEEvEENS_5decayIDTclsr19__to_address_helperIT_EE6__callclsr3stdE7declvalIRKSG_EEEEE4typeESI_, symObjAddr: 0x53F0, symBinAddr: 0x100006160, symSize: 0x20 }
  - { offsetInCU: 0xC6FA, offset: 0xC6FA, size: 0x8, addend: 0x0, symName: __ZNSt3__118__debug_db_erase_cB7v160006INS_6vectorINS_4pairINS1_IfNS_9allocatorIfEEEENS_12basic_stringIcNS_11char_traitsIcEENS3_IcEEEEEENS3_ISB_EEEEEEvPT_, symObjAddr: 0x56D0, symBinAddr: 0x100006440, symSize: 0x10 }
  - { offsetInCU: 0xC72B, offset: 0xC72B, size: 0x8, addend: 0x0, symName: __ZNSt3__119__debug_db_insert_cB7v160006INS_12basic_stringIcNS_11char_traitsIcEENS_9allocatorIcEEEEEEvPT_, symObjAddr: 0x5BF0, symBinAddr: 0x100006960, symSize: 0x10 }
  - { offsetInCU: 0xC75C, offset: 0xC75C, size: 0x8, addend: 0x0, symName: __ZNSt3__13maxB7v160006ImEERKT_S3_S3_, symObjAddr: 0x6260, symBinAddr: 0x100006FD0, symSize: 0x30 }
  - { offsetInCU: 0xC79F, offset: 0xC79F, size: 0x8, addend: 0x0, symName: __ZNSt3__13maxB7v160006ImNS_6__lessImmEEEERKT_S5_S5_T0_, symObjAddr: 0x6290, symBinAddr: 0x100007000, symSize: 0x50 }
  - { offsetInCU: 0xC7F9, offset: 0xC7F9, size: 0x8, addend: 0x0, symName: __ZNSt3__142__uninitialized_allocator_move_if_noexceptB7v160006INS_9allocatorIfEENS_16reverse_iteratorIPfEES5_fvEET1_RT_T0_S9_S6_, symObjAddr: 0x64E0, symBinAddr: 0x100007250, symSize: 0x70 }
  - { offsetInCU: 0xC875, offset: 0xC875, size: 0x8, addend: 0x0, symName: __ZNSt3__14swapB7v160006IPfEENS_9enable_ifIXaasr21is_move_constructibleIT_EE5valuesr18is_move_assignableIS3_EE5valueEvE4typeERS3_S6_, symObjAddr: 0x6550, symBinAddr: 0x1000072C0, symSize: 0x40 }
  - { offsetInCU: 0xC8C6, offset: 0xC8C6, size: 0x8, addend: 0x0, symName: __ZNSt3__125__debug_db_invalidate_allB7v160006INS_6vectorIfNS_9allocatorIfEEEEEEvPT_, symObjAddr: 0x6590, symBinAddr: 0x100007300, symSize: 0x10 }
  - { offsetInCU: 0xC8F7, offset: 0xC8F7, size: 0x8, addend: 0x0, symName: __ZNSt3__14moveB7v160006INS_16reverse_iteratorIPfEES3_EET0_T_S5_S4_, symObjAddr: 0x65A0, symBinAddr: 0x100007310, symSize: 0x80 }
  - { offsetInCU: 0xC951, offset: 0xC951, size: 0x8, addend: 0x0, symName: __ZNSt3__16__moveB7v160006INS_17_ClassicAlgPolicyENS_16reverse_iteratorIPfEES4_S4_EENS_4pairIT0_T2_EES6_T1_S7_, symObjAddr: 0x6620, symBinAddr: 0x100007390, symSize: 0x90 }
  - { offsetInCU: 0xC9BD, offset: 0xC9BD, size: 0x8, addend: 0x0, symName: __ZNSt3__123__dispatch_copy_or_moveB7v160006INS_17_ClassicAlgPolicyENS_11__move_loopIS1_EENS_14__move_trivialENS_16reverse_iteratorIPfEES7_S7_EENS_4pairIT2_T4_EES9_T3_SA_, symObjAddr: 0x66B0, symBinAddr: 0x100007420, symSize: 0x90 }
  - { offsetInCU: 0xCA3B, offset: 0xCA3B, size: 0x8, addend: 0x0, symName: __ZNSt3__121__unwrap_and_dispatchB7v160006INS_10__overloadINS_11__move_loopINS_17_ClassicAlgPolicyEEENS_14__move_trivialEEENS_16reverse_iteratorIPfEES9_S9_Li0EEENS_4pairIT0_T2_EESB_T1_SC_, symObjAddr: 0x6740, symBinAddr: 0x1000074B0, symSize: 0x210 }
  - { offsetInCU: 0xCACA, offset: 0xCACA, size: 0x8, addend: 0x0, symName: __ZNSt3__114__unwrap_rangeB7v160006INS_16reverse_iteratorIPfEES3_EENS_4pairIT0_S5_EET_S7_, symObjAddr: 0x6950, symBinAddr: 0x1000076C0, symSize: 0x90 }
  - { offsetInCU: 0xCC45, offset: 0xCC45, size: 0x8, addend: 0x0, symName: __ZNSt3__113__unwrap_iterB7v160006INS_16reverse_iteratorIPfEENS_18__unwrap_iter_implIS3_Lb0EEELi0EEEDTclsrT0_8__unwrapclsr3stdE7declvalIT_EEEES7_, symObjAddr: 0x6A80, symBinAddr: 0x1000077F0, symSize: 0x40 }
  - { offsetInCU: 0xCC89, offset: 0xCC89, size: 0x8, addend: 0x0, symName: __ZNSt3__19make_pairB7v160006INS_16reverse_iteratorIPfEES3_EENS_4pairINS_18__unwrap_ref_decayIT_E4typeENS5_IT0_E4typeEEEOS6_OS9_, symObjAddr: 0x6AC0, symBinAddr: 0x100007830, symSize: 0x30 }
  - { offsetInCU: 0xCCD8, offset: 0xCCD8, size: 0x8, addend: 0x0, symName: __ZNSt3__114__rewrap_rangeB7v160006INS_16reverse_iteratorIPfEES3_EET_S4_T0_, symObjAddr: 0x6AF0, symBinAddr: 0x100007860, symSize: 0x60 }
  - { offsetInCU: 0xCD24, offset: 0xCD24, size: 0x8, addend: 0x0, symName: __ZNSt3__113__rewrap_iterB7v160006INS_16reverse_iteratorIPfEES3_NS_18__unwrap_iter_implIS3_Lb0EEEEET_S6_T0_, symObjAddr: 0x6B50, symBinAddr: 0x1000078C0, symSize: 0x70 }
  - { offsetInCU: 0xCE2B, offset: 0xCE2B, size: 0x8, addend: 0x0, symName: __ZNSt3__18distanceB7v160006IPfEENS_15iterator_traitsIT_E15difference_typeES3_S3_, symObjAddr: 0x7690, symBinAddr: 0x100008400, symSize: 0x30 }
  - { offsetInCU: 0xCE6E, offset: 0xCE6E, size: 0x8, addend: 0x0, symName: __ZNSt3__14copyB7v160006IPfS1_EET0_T_S3_S2_, symObjAddr: 0x7710, symBinAddr: 0x100008480, symSize: 0x40 }
  - { offsetInCU: 0xCEC8, offset: 0xCEC8, size: 0x8, addend: 0x0, symName: __ZNSt3__110__distanceB7v160006IPfEENS_15iterator_traitsIT_E15difference_typeES3_S3_NS_26random_access_iterator_tagE, symObjAddr: 0x7830, symBinAddr: 0x1000085A0, symSize: 0x20 }
  - { offsetInCU: 0xCF15, offset: 0xCF15, size: 0x8, addend: 0x0, symName: __ZNSt3__121__convert_to_integralB7v160006Em, symObjAddr: 0x7850, symBinAddr: 0x1000085C0, symSize: 0x10 }
  - { offsetInCU: 0xCF41, offset: 0xCF41, size: 0x8, addend: 0x0, symName: __ZNSt3__19__advanceB7v160006IPfEEvRT_NS_15iterator_traitsIS2_E15difference_typeENS_26random_access_iterator_tagE, symObjAddr: 0x7860, symBinAddr: 0x1000085D0, symSize: 0x20 }
  - { offsetInCU: 0xCF8A, offset: 0xCF8A, size: 0x8, addend: 0x0, symName: __ZNSt3__16__copyB7v160006INS_17_ClassicAlgPolicyEPfS2_S2_EENS_4pairIT0_T2_EES4_T1_S5_, symObjAddr: 0x7880, symBinAddr: 0x1000085F0, symSize: 0x40 }
  - { offsetInCU: 0xCFF6, offset: 0xCFF6, size: 0x8, addend: 0x0, symName: __ZNSt3__123__dispatch_copy_or_moveB7v160006INS_17_ClassicAlgPolicyENS_11__copy_loopIS1_EENS_14__copy_trivialEPfS5_S5_EENS_4pairIT2_T4_EES7_T3_S8_, symObjAddr: 0x78C0, symBinAddr: 0x100008630, symSize: 0x40 }
  - { offsetInCU: 0xD074, offset: 0xD074, size: 0x8, addend: 0x0, symName: __ZNSt3__121__unwrap_and_dispatchB7v160006INS_10__overloadINS_11__copy_loopINS_17_ClassicAlgPolicyEEENS_14__copy_trivialEEEPfS7_S7_Li0EEENS_4pairIT0_T2_EES9_T1_SA_, symObjAddr: 0x7900, symBinAddr: 0x100008670, symSize: 0xB0 }
  - { offsetInCU: 0xD103, offset: 0xD103, size: 0x8, addend: 0x0, symName: __ZNSt3__114__unwrap_rangeB7v160006IPfS1_EENS_4pairIT0_S3_EET_S5_, symObjAddr: 0x79B0, symBinAddr: 0x100008720, symSize: 0x50 }
  - { offsetInCU: 0xD298, offset: 0xD298, size: 0x8, addend: 0x0, symName: __ZNSt3__113__unwrap_iterB7v160006IPfNS_18__unwrap_iter_implIS1_Lb1EEELi0EEEDTclsrT0_8__unwrapclsr3stdE7declvalIT_EEEES5_, symObjAddr: 0x7A40, symBinAddr: 0x1000087B0, symSize: 0x20 }
  - { offsetInCU: 0xD2DC, offset: 0xD2DC, size: 0x8, addend: 0x0, symName: __ZNSt3__19make_pairB7v160006IPfS1_EENS_4pairINS_18__unwrap_ref_decayIT_E4typeENS3_IT0_E4typeEEEOS4_OS7_, symObjAddr: 0x7A60, symBinAddr: 0x1000087D0, symSize: 0x30 }
  - { offsetInCU: 0xD32B, offset: 0xD32B, size: 0x8, addend: 0x0, symName: __ZNSt3__114__rewrap_rangeB7v160006IPfS1_EET_S2_T0_, symObjAddr: 0x7A90, symBinAddr: 0x100008800, symSize: 0x30 }
  - { offsetInCU: 0xD377, offset: 0xD377, size: 0x8, addend: 0x0, symName: __ZNSt3__113__rewrap_iterB7v160006IPfS1_NS_18__unwrap_iter_implIS1_Lb1EEEEET_S4_T0_, symObjAddr: 0x7AC0, symBinAddr: 0x100008830, symSize: 0x40 }
  - { offsetInCU: 0xD3CC, offset: 0xD3CC, size: 0x8, addend: 0x0, symName: __ZNSt3__119__copy_trivial_implB7v160006IffEENS_4pairIPT_PT0_EES3_S3_S5_, symObjAddr: 0x7B00, symBinAddr: 0x100008870, symSize: 0x70 }
  - { offsetInCU: 0xD434, offset: 0xD434, size: 0x8, addend: 0x0, symName: __ZNSt3__19make_pairB7v160006IRPfS1_EENS_4pairINS_18__unwrap_ref_decayIT_E4typeENS4_IT0_E4typeEEEOS5_OS8_, symObjAddr: 0x7B70, symBinAddr: 0x1000088E0, symSize: 0x30 }
  - { offsetInCU: 0xD4D6, offset: 0xD4D6, size: 0x8, addend: 0x0, symName: __ZNSt3__142__uninitialized_allocator_move_if_noexceptB7v160006INS_9allocatorINS_4pairINS_6vectorIfNS1_IfEEEENS_12basic_stringIcNS_11char_traitsIcEENS1_IcEEEEEEEENS_16reverse_iteratorIPSB_EESF_SF_EET2_RT_T0_T1_SG_, symObjAddr: 0x83B0, symBinAddr: 0x100009120, symSize: 0x170 }
  - { offsetInCU: 0xD575, offset: 0xD575, size: 0x8, addend: 0x0, symName: __ZNSt3__14swapB7v160006IPNS_4pairINS_6vectorIfNS_9allocatorIfEEEENS_12basic_stringIcNS_11char_traitsIcEENS3_IcEEEEEEEENS_9enable_ifIXaasr21is_move_constructibleIT_EE5valuesr18is_move_assignableISE_EE5valueEvE4typeERSE_SH_, symObjAddr: 0x8520, symBinAddr: 0x100009290, symSize: 0x40 }
  - { offsetInCU: 0xD5C6, offset: 0xD5C6, size: 0x8, addend: 0x0, symName: __ZNSt3__125__debug_db_invalidate_allB7v160006INS_6vectorINS_4pairINS1_IfNS_9allocatorIfEEEENS_12basic_stringIcNS_11char_traitsIcEENS3_IcEEEEEENS3_ISB_EEEEEEvPT_, symObjAddr: 0x8560, symBinAddr: 0x1000092D0, symSize: 0x10 }
  - { offsetInCU: 0xD5F7, offset: 0xD5F7, size: 0x8, addend: 0x0, symName: __ZNSt3__122__make_exception_guardB7v160006INS_29_AllocatorDestroyRangeReverseINS_9allocatorINS_4pairINS_6vectorIfNS2_IfEEEENS_12basic_stringIcNS_11char_traitsIcEENS2_IcEEEEEEEENS_16reverse_iteratorIPSC_EEEEEENS_28__exception_guard_exceptionsIT_EESJ_, symObjAddr: 0x8570, symBinAddr: 0x1000092E0, symSize: 0x60 }
  - { offsetInCU: 0xD62C, offset: 0xD62C, size: 0x8, addend: 0x0, symName: __ZNSt3__115__debug_db_swapB7v160006INS_6vectorIfNS_9allocatorIfEEEEEEvPT_S6_, symObjAddr: 0x8910, symBinAddr: 0x100009680, symSize: 0x10 }
  - { offsetInCU: 0xD66B, offset: 0xD66B, size: 0x8, addend: 0x0, symName: __ZNSt3__115__debug_db_swapB7v160006INS_12basic_stringIcNS_11char_traitsIcEENS_9allocatorIcEEEEEEvPT_S8_, symObjAddr: 0x89D0, symBinAddr: 0x100009740, symSize: 0x10 }
  - { offsetInCU: 0xD6AA, offset: 0xD6AA, size: 0x8, addend: 0x0, symName: __ZNSt3__119__allocator_destroyB7v160006INS_9allocatorINS_4pairINS_6vectorIfNS1_IfEEEENS_12basic_stringIcNS_11char_traitsIcEENS1_IcEEEEEEEENS_16reverse_iteratorINSD_IPSB_EEEESG_EEvRT_T0_T1_, symObjAddr: 0x8B40, symBinAddr: 0x1000098B0, symSize: 0x70 }
  - { offsetInCU: 0xD70D, offset: 0xD70D, size: 0x8, addend: 0x0, symName: __ZNSt3__1neB7v160006INS_16reverse_iteratorIPNS_4pairINS_6vectorIfNS_9allocatorIfEEEENS_12basic_stringIcNS_11char_traitsIcEENS4_IcEEEEEEEESE_EEbRKNS1_IT_EERKNS1_IT0_EE, symObjAddr: 0x8BE0, symBinAddr: 0x100009950, symSize: 0x50 }
  - { offsetInCU: 0xD759, offset: 0xD759, size: 0x8, addend: 0x0, symName: __ZNSt3__112__to_addressB7v160006INS_16reverse_iteratorINS1_IPNS_4pairINS_6vectorIfNS_9allocatorIfEEEENS_12basic_stringIcNS_11char_traitsIcEENS4_IcEEEEEEEEEEvEENS_5decayIDTclsr19__to_address_helperIT_EE6__callclsr3stdE7declvalIRKSH_EEEEE4typeESJ_, symObjAddr: 0x8C30, symBinAddr: 0x1000099A0, symSize: 0x20 }
  - { offsetInCU: 0xD7B8, offset: 0xD7B8, size: 0x8, addend: 0x0, symName: __ZNSt3__116__pad_and_outputB7v160006IcNS_11char_traitsIcEEEENS_19ostreambuf_iteratorIT_T0_EES6_PKS4_S8_S8_RNS_8ios_baseES4_, symObjAddr: 0x9410, symBinAddr: 0x10000A180, symSize: 0x220 }
  - { offsetInCU: 0xD888, offset: 0xD888, size: 0x8, addend: 0x0, symName: __ZNSt3__112__to_addressB7v160006IKcEEPT_S3_, symObjAddr: 0x9840, symBinAddr: 0x10000A5B0, symSize: 0x10 }
  - { offsetInCU: 0xD8F0, offset: 0xD8F0, size: 0x8, addend: 0x0, symName: __ZNSt3__19use_facetB7v160006INS_5ctypeIcEEEERKT_RKNS_6localeE, symObjAddr: 0x9A30, symBinAddr: 0x10000A7A0, symSize: 0x30 }
  - { offsetInCU: 0xDDBF, offset: 0xDDBF, size: 0x8, addend: 0x0, symName: __ZNSt3__118__constexpr_strlenB7v160006EPKc, symObjAddr: 0x9A90, symBinAddr: 0x10000A800, symSize: 0x20 }
  - { offsetInCU: 0xDDEB, offset: 0xDDEB, size: 0x8, addend: 0x0, symName: __ZNSt3__125__debug_db_invalidate_allB7v160006INS_12basic_stringIcNS_11char_traitsIcEENS_9allocatorIcEEEEEEvPT_, symObjAddr: 0xA170, symBinAddr: 0x10000AEE0, symSize: 0x10 }
  - { offsetInCU: 0xE554, offset: 0xE554, size: 0x8, addend: 0x0, symName: __ZSt28__throw_bad_array_new_lengthB7v160006v, symObjAddr: 0x29B0, symBinAddr: 0x100003720, symSize: 0x40 }
  - { offsetInCU: 0xEF39, offset: 0xEF39, size: 0x8, addend: 0x0, symName: __Z3powB7v160006IfiENSt3__19enable_ifIXaasr3std13is_arithmeticIT_EE5valuesr3std13is_arithmeticIT0_EE5valueENS0_9__promoteIS2_S3_vEEE4type4typeES2_S3_, symObjAddr: 0xE0, symBinAddr: 0x100000E50, symSize: 0x30 }
  - { offsetInCU: 0xEFB7, offset: 0xEFB7, size: 0x8, addend: 0x0, symName: __ZNSt3__16vectorIfNS_9allocatorIfEEE26__swap_out_circular_bufferERNS_14__split_bufferIfRS2_EE, symObjAddr: 0x6110, symBinAddr: 0x100006E80, symSize: 0x130 }
  - { offsetInCU: 0xEFFA, offset: 0xEFFA, size: 0x8, addend: 0x0, symName: __ZNSt3__16vectorINS_4pairINS0_IfNS_9allocatorIfEEEENS_12basic_stringIcNS_11char_traitsIcEENS2_IcEEEEEENS2_ISA_EEE26__swap_out_circular_bufferERNS_14__split_bufferISA_RSB_EE, symObjAddr: 0x8070, symBinAddr: 0x100008DE0, symSize: 0x130 }
  - { offsetInCU: 0x112AF, offset: 0x112AF, size: 0x8, addend: 0x0, symName: __Z19distanciaEuclidianaRKNSt3__16vectorIfNS_9allocatorIfEEEES5_, symObjAddr: 0x0, symBinAddr: 0x100000D70, symSize: 0xC0 }
  - { offsetInCU: 0x11315, offset: 0x11315, size: 0x8, addend: 0x0, symName: __ZNKSt3__16vectorIfNS_9allocatorIfEEE4sizeB7v160006Ev, symObjAddr: 0xC0, symBinAddr: 0x100000E30, symSize: 0x20 }
  - { offsetInCU: 0x1133B, offset: 0x1133B, size: 0x8, addend: 0x0, symName: __ZNKSt3__16vectorIfNS_9allocatorIfEEEixB7v160006Em, symObjAddr: 0x110, symBinAddr: 0x100000E80, symSize: 0x20 }
  - { offsetInCU: 0x11371, offset: 0x11371, size: 0x8, addend: 0x0, symName: __Z4sqrtB7v160006f, symObjAddr: 0x130, symBinAddr: 0x100000EA0, symSize: 0x20 }
  - { offsetInCU: 0x1139F, offset: 0x1139F, size: 0x8, addend: 0x0, symName: __Z16cambiarCentroideRKNSt3__16vectorINS_4pairINS0_IfNS_9allocatorIfEEEENS_12basic_stringIcNS_11char_traitsIcEENS2_IcEEEEEENS2_ISA_EEEE, symObjAddr: 0x150, symBinAddr: 0x100000EC0, symSize: 0x130 }
  - { offsetInCU: 0x11445, offset: 0x11445, size: 0x8, addend: 0x0, symName: __ZNSt3__16vectorIfNS_9allocatorIfEEEC1B7v160006Ev, symObjAddr: 0x280, symBinAddr: 0x100000FF0, symSize: 0x20 }
  - { offsetInCU: 0x1146F, offset: 0x1146F, size: 0x8, addend: 0x0, symName: __ZNKSt3__16vectorINS_4pairINS0_IfNS_9allocatorIfEEEENS_12basic_stringIcNS_11char_traitsIcEENS2_IcEEEEEENS2_ISA_EEE4sizeB7v160006Ev, symObjAddr: 0x2A0, symBinAddr: 0x100001010, symSize: 0x30 }
  - { offsetInCU: 0x11495, offset: 0x11495, size: 0x8, addend: 0x0, symName: __ZNKSt3__16vectorINS_4pairINS0_IfNS_9allocatorIfEEEENS_12basic_stringIcNS_11char_traitsIcEENS2_IcEEEEEENS2_ISA_EEEixB7v160006Em, symObjAddr: 0x2D0, symBinAddr: 0x100001040, symSize: 0x20 }
  - { offsetInCU: 0x114CC, offset: 0x114CC, size: 0x8, addend: 0x0, symName: __ZNSt3__16vectorIfNS_9allocatorIfEEE9push_backB7v160006ERKf, symObjAddr: 0x2F0, symBinAddr: 0x100001060, symSize: 0x60 }
  - { offsetInCU: 0x11503, offset: 0x11503, size: 0x8, addend: 0x0, symName: __ZNSt3__16vectorIfNS_9allocatorIfEEED1B7v160006Ev, symObjAddr: 0x350, symBinAddr: 0x1000010C0, symSize: 0x20 }
  - { offsetInCU: 0x1152C, offset: 0x1152C, size: 0x8, addend: 0x0, symName: __Z5kmeanRKNSt3__16vectorINS_4pairINS0_IfNS_9allocatorIfEEEENS_12basic_stringIcNS_11char_traitsIcEENS2_IcEEEEEENS2_ISA_EEEE, symObjAddr: 0x370, symBinAddr: 0x1000010E0, symSize: 0x310 }
  - { offsetInCU: 0x11611, offset: 0x11611, size: 0x8, addend: 0x0, symName: __ZNSt3__16vectorINS_4pairINS0_IfNS_9allocatorIfEEEENS_12basic_stringIcNS_11char_traitsIcEENS2_IcEEEEEENS2_ISA_EEEC1Em, symObjAddr: 0x680, symBinAddr: 0x1000013F0, symSize: 0x30 }
  - { offsetInCU: 0x1164C, offset: 0x1164C, size: 0x8, addend: 0x0, symName: __ZNSt3__16vectorINS0_INS_4pairINS0_IfNS_9allocatorIfEEEENS_12basic_stringIcNS_11char_traitsIcEENS2_IcEEEEEENS2_ISA_EEEENS2_ISC_EEEC1Em, symObjAddr: 0x6B0, symBinAddr: 0x100001420, symSize: 0x30 }
  - { offsetInCU: 0x11687, offset: 0x11687, size: 0x8, addend: 0x0, symName: __ZNSt3__16vectorINS_4pairINS0_IfNS_9allocatorIfEEEENS_12basic_stringIcNS_11char_traitsIcEENS2_IcEEEEEENS2_ISA_EEEixB7v160006Em, symObjAddr: 0x6E0, symBinAddr: 0x100001450, symSize: 0x20 }
  - { offsetInCU: 0x116BE, offset: 0x116BE, size: 0x8, addend: 0x0, symName: __ZNSt3__14pairINS_6vectorIfNS_9allocatorIfEEEENS_12basic_stringIcNS_11char_traitsIcEENS2_IcEEEEEaSB7v160006ERKSA_, symObjAddr: 0x700, symBinAddr: 0x100001470, symSize: 0x40 }
  - { offsetInCU: 0x116F3, offset: 0x116F3, size: 0x8, addend: 0x0, symName: __ZNSt3__16vectorINS0_INS_4pairINS0_IfNS_9allocatorIfEEEENS_12basic_stringIcNS_11char_traitsIcEENS2_IcEEEEEENS2_ISA_EEEENS2_ISC_EEEixB7v160006Em, symObjAddr: 0x740, symBinAddr: 0x1000014B0, symSize: 0x20 }
  - { offsetInCU: 0x1172A, offset: 0x1172A, size: 0x8, addend: 0x0, symName: __ZNSt3__16vectorINS_4pairINS0_IfNS_9allocatorIfEEEENS_12basic_stringIcNS_11char_traitsIcEENS2_IcEEEEEENS2_ISA_EEE9push_backB7v160006ERKSA_, symObjAddr: 0x760, symBinAddr: 0x1000014D0, symSize: 0x60 }
  - { offsetInCU: 0x11761, offset: 0x11761, size: 0x8, addend: 0x0, symName: __ZNSt3__16vectorIfNS_9allocatorIfEEEaSB7v160006EOS3_, symObjAddr: 0x7C0, symBinAddr: 0x100001530, symSize: 0x30 }
  - { offsetInCU: 0x11798, offset: 0x11798, size: 0x8, addend: 0x0, symName: __ZNSt3__112basic_stringIcNS_11char_traitsIcEENS_9allocatorIcEEEaSB7v160006EPKc, symObjAddr: 0x7F0, symBinAddr: 0x100001560, symSize: 0x30 }
  - { offsetInCU: 0x117CD, offset: 0x117CD, size: 0x8, addend: 0x0, symName: __ZNSt3__16vectorINS0_INS_4pairINS0_IfNS_9allocatorIfEEEENS_12basic_stringIcNS_11char_traitsIcEENS2_IcEEEEEENS2_ISA_EEEENS2_ISC_EEED1B7v160006Ev, symObjAddr: 0x860, symBinAddr: 0x1000015D0, symSize: 0x20 }
  - { offsetInCU: 0x117F7, offset: 0x117F7, size: 0x8, addend: 0x0, symName: __ZNSt3__16vectorINS_4pairINS0_IfNS_9allocatorIfEEEENS_12basic_stringIcNS_11char_traitsIcEENS2_IcEEEEEENS2_ISA_EEED1B7v160006Ev, symObjAddr: 0x880, symBinAddr: 0x1000015F0, symSize: 0x20 }
  - { offsetInCU: 0x11820, offset: 0x11820, size: 0x8, addend: 0x0, symName: __Z11wssPersonalRKNSt3__16vectorINS0_INS_4pairINS0_IfNS_9allocatorIfEEEENS_12basic_stringIcNS_11char_traitsIcEENS2_IcEEEEEENS2_ISA_EEEENS2_ISC_EEEERKSC_, symObjAddr: 0x8A0, symBinAddr: 0x100001610, symSize: 0x150 }
  - { offsetInCU: 0x118B8, offset: 0x118B8, size: 0x8, addend: 0x0, symName: __ZNKSt3__16vectorINS0_INS_4pairINS0_IfNS_9allocatorIfEEEENS_12basic_stringIcNS_11char_traitsIcEENS2_IcEEEEEENS2_ISA_EEEENS2_ISC_EEE4sizeB7v160006Ev, symObjAddr: 0x9F0, symBinAddr: 0x100001760, symSize: 0x30 }
  - { offsetInCU: 0x118DE, offset: 0x118DE, size: 0x8, addend: 0x0, symName: __ZNKSt3__16vectorINS0_INS_4pairINS0_IfNS_9allocatorIfEEEENS_12basic_stringIcNS_11char_traitsIcEENS2_IcEEEEEENS2_ISA_EEEENS2_ISC_EEEixB7v160006Em, symObjAddr: 0xA20, symBinAddr: 0x100001790, symSize: 0x20 }
  - { offsetInCU: 0x11914, offset: 0x11914, size: 0x8, addend: 0x0, symName: __Z7wssPromRKNSt3__16vectorIfNS_9allocatorIfEEEE, symObjAddr: 0xA40, symBinAddr: 0x1000017B0, symSize: 0x1B0 }
  - { offsetInCU: 0x11A16, offset: 0x11A16, size: 0x8, addend: 0x0, symName: __ZNSt3__114basic_ofstreamIcNS_11char_traitsIcEEEC1EPKcj, symObjAddr: 0xBF0, symBinAddr: 0x100001960, symSize: 0x160 }
  - { offsetInCU: 0x11A65, offset: 0x11A65, size: 0x8, addend: 0x0, symName: __ZNSt3__114basic_ofstreamIcNS_11char_traitsIcEEED1Ev, symObjAddr: 0xD50, symBinAddr: 0x100001AC0, symSize: 0x40 }
  - { offsetInCU: 0x11A91, offset: 0x11A91, size: 0x8, addend: 0x0, symName: __Z3TXTRKNSt3__16vectorINS0_INS_4pairINS0_IfNS_9allocatorIfEEEENS_12basic_stringIcNS_11char_traitsIcEENS2_IcEEEEEENS2_ISA_EEEENS2_ISC_EEEE, symObjAddr: 0xD90, symBinAddr: 0x100001B00, symSize: 0x230 }
  - { offsetInCU: 0x11AFC, offset: 0x11AFC, size: 0x8, addend: 0x0, symName: __Z13txtCentroidesRKNSt3__16vectorINS_4pairINS0_IfNS_9allocatorIfEEEENS_12basic_stringIcNS_11char_traitsIcEENS2_IcEEEEEENS2_ISA_EEEE, symObjAddr: 0x1000, symBinAddr: 0x100001D70, symSize: 0x1B0 }
  - { offsetInCU: 0x11B53, offset: 0x11B53, size: 0x8, addend: 0x0, symName: _main, symObjAddr: 0x11B0, symBinAddr: 0x100001F20, symSize: 0x670 }
  - { offsetInCU: 0x11C6E, offset: 0x11C6E, size: 0x8, addend: 0x0, symName: __ZNSt3__114basic_ifstreamIcNS_11char_traitsIcEEEC1EPKcj, symObjAddr: 0x1820, symBinAddr: 0x100002590, symSize: 0x160 }
  - { offsetInCU: 0x11CB8, offset: 0x11CB8, size: 0x8, addend: 0x0, symName: __ZNSt3__112basic_stringIcNS_11char_traitsIcEENS_9allocatorIcEEEC1B7v160006Ev, symObjAddr: 0x1980, symBinAddr: 0x1000026F0, symSize: 0x20 }
  - { offsetInCU: 0x11CE2, offset: 0x11CE2, size: 0x8, addend: 0x0, symName: __ZNSt3__16vectorINS_4pairINS0_IfNS_9allocatorIfEEEENS_12basic_stringIcNS_11char_traitsIcEENS2_IcEEEEEENS2_ISA_EEEC1B7v160006Ev, symObjAddr: 0x19A0, symBinAddr: 0x100002710, symSize: 0x20 }
  - { offsetInCU: 0x11D0C, offset: 0x11D0C, size: 0x8, addend: 0x0, symName: __ZNKSt3__19basic_iosIcNS_11char_traitsIcEEEcvbB7v160006Ev, symObjAddr: 0x1A10, symBinAddr: 0x100002780, symSize: 0x30 }
  - { offsetInCU: 0x11D64, offset: 0x11D64, size: 0x8, addend: 0x0, symName: __ZNSt3__118basic_stringstreamIcNS_11char_traitsIcEENS_9allocatorIcEEEC1B7v160006ERKNS_12basic_stringIcS2_S4_EEj, symObjAddr: 0x1A40, symBinAddr: 0x1000027B0, symSize: 0x100 }
  - { offsetInCU: 0x11DAC, offset: 0x11DAC, size: 0x8, addend: 0x0, symName: __ZNSt3__119basic_istringstreamIcNS_11char_traitsIcEENS_9allocatorIcEEEC1B7v160006ERKNS_12basic_stringIcS2_S4_EEj, symObjAddr: 0x1D90, symBinAddr: 0x100002B00, symSize: 0xE0 }
  - { offsetInCU: 0x11DF9, offset: 0x11DF9, size: 0x8, addend: 0x0, symName: __ZNSt3__119basic_istringstreamIcNS_11char_traitsIcEENS_9allocatorIcEEED1Ev, symObjAddr: 0x1E70, symBinAddr: 0x100002BE0, symSize: 0x40 }
  - { offsetInCU: 0x11E26, offset: 0x11E26, size: 0x8, addend: 0x0, symName: __ZNSt3__16vectorINS_4pairINS0_IfNS_9allocatorIfEEEENS_12basic_stringIcNS_11char_traitsIcEENS2_IcEEEEEENS2_ISA_EEE9push_backB7v160006EOSA_, symObjAddr: 0x1EB0, symBinAddr: 0x100002C20, symSize: 0x60 }
  - { offsetInCU: 0x11E5D, offset: 0x11E5D, size: 0x8, addend: 0x0, symName: __ZNSt3__14pairINS_6vectorIfNS_9allocatorIfEEEENS_12basic_stringIcNS_11char_traitsIcEENS2_IcEEEEED1Ev, symObjAddr: 0x1F50, symBinAddr: 0x100002CC0, symSize: 0x20 }
  - { offsetInCU: 0x11E8E, offset: 0x11E8E, size: 0x8, addend: 0x0, symName: __ZNSt3__118basic_stringstreamIcNS_11char_traitsIcEENS_9allocatorIcEEED1Ev, symObjAddr: 0x1F70, symBinAddr: 0x100002CE0, symSize: 0x40 }
  - { offsetInCU: 0x11EBB, offset: 0x11EBB, size: 0x8, addend: 0x0, symName: __ZNSt3__114basic_ifstreamIcNS_11char_traitsIcEEE5closeEv, symObjAddr: 0x1FB0, symBinAddr: 0x100002D20, symSize: 0x50 }
  - { offsetInCU: 0x11EFC, offset: 0x11EFC, size: 0x8, addend: 0x0, symName: __ZNSt3__14pairINS_6vectorINS1_INS0_INS1_IfNS_9allocatorIfEEEENS_12basic_stringIcNS_11char_traitsIcEENS2_IcEEEEEENS2_ISA_EEEENS2_ISC_EEEESC_ED1Ev, symObjAddr: 0x2000, symBinAddr: 0x100002D70, symSize: 0x20 }
  - { offsetInCU: 0x11F2D, offset: 0x11F2D, size: 0x8, addend: 0x0, symName: __ZNSt3__114basic_ifstreamIcNS_11char_traitsIcEEED1Ev, symObjAddr: 0x2020, symBinAddr: 0x100002D90, symSize: 0x40 }
  - { offsetInCU: 0x11F5A, offset: 0x11F5A, size: 0x8, addend: 0x0, symName: __ZNSt3__14pairINS_6vectorINS1_INS0_INS1_IfNS_9allocatorIfEEEENS_12basic_stringIcNS_11char_traitsIcEENS2_IcEEEEEENS2_ISA_EEEENS2_ISC_EEEESC_EC1B7v160006IRSE_RSC_LPv0EEEOT_OT0_, symObjAddr: 0x2060, symBinAddr: 0x100002DD0, symSize: 0x30 }
  - { offsetInCU: 0x11FB8, offset: 0x11FB8, size: 0x8, addend: 0x0, symName: __ZNSt3__14pairINS_6vectorINS1_INS0_INS1_IfNS_9allocatorIfEEEENS_12basic_stringIcNS_11char_traitsIcEENS2_IcEEEEEENS2_ISA_EEEENS2_ISC_EEEESC_EC2B7v160006IRSE_RSC_LPv0EEEOT_OT0_, symObjAddr: 0x2090, symBinAddr: 0x100002E00, symSize: 0x60 }
  - { offsetInCU: 0x12016, offset: 0x12016, size: 0x8, addend: 0x0, symName: __ZNSt3__16vectorINS0_INS_4pairINS0_IfNS_9allocatorIfEEEENS_12basic_stringIcNS_11char_traitsIcEENS2_IcEEEEEENS2_ISA_EEEENS2_ISC_EEEC1ERKSE_, symObjAddr: 0x20F0, symBinAddr: 0x100002E60, symSize: 0x30 }
  - { offsetInCU: 0x12051, offset: 0x12051, size: 0x8, addend: 0x0, symName: __ZNSt3__16vectorINS_4pairINS0_IfNS_9allocatorIfEEEENS_12basic_stringIcNS_11char_traitsIcEENS2_IcEEEEEENS2_ISA_EEEC1ERKSC_, symObjAddr: 0x2120, symBinAddr: 0x100002E90, symSize: 0x30 }
  - { offsetInCU: 0x1208C, offset: 0x1208C, size: 0x8, addend: 0x0, symName: __ZNSt3__16vectorINS0_INS_4pairINS0_IfNS_9allocatorIfEEEENS_12basic_stringIcNS_11char_traitsIcEENS2_IcEEEEEENS2_ISA_EEEENS2_ISC_EEEC2ERKSE_, symObjAddr: 0x2150, symBinAddr: 0x100002EC0, symSize: 0x110 }
  - { offsetInCU: 0x120F6, offset: 0x120F6, size: 0x8, addend: 0x0, symName: __ZNSt3__116allocator_traitsINS_9allocatorINS_6vectorINS_4pairINS2_IfNS1_IfEEEENS_12basic_stringIcNS_11char_traitsIcEENS1_IcEEEEEENS1_ISB_EEEEEEE37select_on_container_copy_constructionB7v160006ISE_vvEESE_RKSE_, symObjAddr: 0x2260, symBinAddr: 0x100002FD0, symSize: 0x10 }
  - { offsetInCU: 0x12125, offset: 0x12125, size: 0x8, addend: 0x0, symName: __ZNKSt3__16vectorINS0_INS_4pairINS0_IfNS_9allocatorIfEEEENS_12basic_stringIcNS_11char_traitsIcEENS2_IcEEEEEENS2_ISA_EEEENS2_ISC_EEE7__allocB7v160006Ev, symObjAddr: 0x2270, symBinAddr: 0x100002FE0, symSize: 0x20 }
  - { offsetInCU: 0x12155, offset: 0x12155, size: 0x8, addend: 0x0, symName: __ZNSt3__117__compressed_pairIPNS_6vectorINS_4pairINS1_IfNS_9allocatorIfEEEENS_12basic_stringIcNS_11char_traitsIcEENS3_IcEEEEEENS3_ISB_EEEENS3_ISD_EEEC1B7v160006IDnSF_EEOT_OT0_, symObjAddr: 0x2290, symBinAddr: 0x100003000, symSize: 0x30 }
  - { offsetInCU: 0x121AD, offset: 0x121AD, size: 0x8, addend: 0x0, symName: __ZNSt3__16vectorINS0_INS_4pairINS0_IfNS_9allocatorIfEEEENS_12basic_stringIcNS_11char_traitsIcEENS2_IcEEEEEENS2_ISA_EEEENS2_ISC_EEE16__destroy_vectorC1ERSE_, symObjAddr: 0x2300, symBinAddr: 0x100003070, symSize: 0x30 }
  - { offsetInCU: 0x121E6, offset: 0x121E6, size: 0x8, addend: 0x0, symName: __ZNSt3__16vectorINS0_INS_4pairINS0_IfNS_9allocatorIfEEEENS_12basic_stringIcNS_11char_traitsIcEENS2_IcEEEEEENS2_ISA_EEEENS2_ISC_EEE11__vallocateB7v160006Em, symObjAddr: 0x2340, symBinAddr: 0x1000030B0, symSize: 0xA0 }
  - { offsetInCU: 0x1222A, offset: 0x1222A, size: 0x8, addend: 0x0, symName: __ZNSt3__16vectorINS0_INS_4pairINS0_IfNS_9allocatorIfEEEENS_12basic_stringIcNS_11char_traitsIcEENS2_IcEEEEEENS2_ISA_EEEENS2_ISC_EEE18__construct_at_endIPSC_Li0EEEvT_SH_m, symObjAddr: 0x23E0, symBinAddr: 0x100003150, symSize: 0x90 }
  - { offsetInCU: 0x1229D, offset: 0x1229D, size: 0x8, addend: 0x0, symName: __ZNSt3__128__exception_guard_exceptionsINS_6vectorINS1_INS_4pairINS1_IfNS_9allocatorIfEEEENS_12basic_stringIcNS_11char_traitsIcEENS3_IcEEEEEENS3_ISB_EEEENS3_ISD_EEE16__destroy_vectorEE10__completeB7v160006Ev, symObjAddr: 0x2470, symBinAddr: 0x1000031E0, symSize: 0x20 }
  - { offsetInCU: 0x122C3, offset: 0x122C3, size: 0x8, addend: 0x0, symName: __ZNSt3__128__exception_guard_exceptionsINS_6vectorINS1_INS_4pairINS1_IfNS_9allocatorIfEEEENS_12basic_stringIcNS_11char_traitsIcEENS3_IcEEEEEENS3_ISB_EEEENS3_ISD_EEE16__destroy_vectorEED1B7v160006Ev, symObjAddr: 0x2490, symBinAddr: 0x100003200, symSize: 0x20 }
  - { offsetInCU: 0x122ED, offset: 0x122ED, size: 0x8, addend: 0x0, symName: __ZNKSt3__117__compressed_pairIPNS_6vectorINS_4pairINS1_IfNS_9allocatorIfEEEENS_12basic_stringIcNS_11char_traitsIcEENS3_IcEEEEEENS3_ISB_EEEENS3_ISD_EEE6secondB7v160006Ev, symObjAddr: 0x24B0, symBinAddr: 0x100003220, symSize: 0x20 }
  - { offsetInCU: 0x12313, offset: 0x12313, size: 0x8, addend: 0x0, symName: __ZNKSt3__122__compressed_pair_elemINS_9allocatorINS_6vectorINS_4pairINS2_IfNS1_IfEEEENS_12basic_stringIcNS_11char_traitsIcEENS1_IcEEEEEENS1_ISB_EEEEEELi1ELb1EE5__getB7v160006Ev, symObjAddr: 0x24D0, symBinAddr: 0x100003240, symSize: 0x10 }
  - { offsetInCU: 0x12339, offset: 0x12339, size: 0x8, addend: 0x0, symName: __ZNSt3__117__compressed_pairIPNS_6vectorINS_4pairINS1_IfNS_9allocatorIfEEEENS_12basic_stringIcNS_11char_traitsIcEENS3_IcEEEEEENS3_ISB_EEEENS3_ISD_EEEC2B7v160006IDnSF_EEOT_OT0_, symObjAddr: 0x24E0, symBinAddr: 0x100003250, symSize: 0x40 }
  - { offsetInCU: 0x12391, offset: 0x12391, size: 0x8, addend: 0x0, symName: __ZNSt3__122__compressed_pair_elemIPNS_6vectorINS_4pairINS1_IfNS_9allocatorIfEEEENS_12basic_stringIcNS_11char_traitsIcEENS3_IcEEEEEENS3_ISB_EEEELi0ELb0EEC2B7v160006IDnvEEOT_, symObjAddr: 0x2520, symBinAddr: 0x100003290, symSize: 0x20 }
  - { offsetInCU: 0x123D3, offset: 0x123D3, size: 0x8, addend: 0x0, symName: __ZNSt3__122__compressed_pair_elemINS_9allocatorINS_6vectorINS_4pairINS2_IfNS1_IfEEEENS_12basic_stringIcNS_11char_traitsIcEENS1_IcEEEEEENS1_ISB_EEEEEELi1ELb1EEC2B7v160006ISE_vEEOT_, symObjAddr: 0x2540, symBinAddr: 0x1000032B0, symSize: 0x10 }
  - { offsetInCU: 0x12415, offset: 0x12415, size: 0x8, addend: 0x0, symName: __ZNSt3__128__exception_guard_exceptionsINS_6vectorINS1_INS_4pairINS1_IfNS_9allocatorIfEEEENS_12basic_stringIcNS_11char_traitsIcEENS3_IcEEEEEENS3_ISB_EEEENS3_ISD_EEE16__destroy_vectorEEC1B7v160006ESG_, symObjAddr: 0x2550, symBinAddr: 0x1000032C0, symSize: 0x30 }
  - { offsetInCU: 0x1244D, offset: 0x1244D, size: 0x8, addend: 0x0, symName: __ZNSt3__128__exception_guard_exceptionsINS_6vectorINS1_INS_4pairINS1_IfNS_9allocatorIfEEEENS_12basic_stringIcNS_11char_traitsIcEENS3_IcEEEEEENS3_ISB_EEEENS3_ISD_EEE16__destroy_vectorEEC2B7v160006ESG_, symObjAddr: 0x2580, symBinAddr: 0x1000032F0, symSize: 0x20 }
  - { offsetInCU: 0x12485, offset: 0x12485, size: 0x8, addend: 0x0, symName: __ZNSt3__16vectorINS0_INS_4pairINS0_IfNS_9allocatorIfEEEENS_12basic_stringIcNS_11char_traitsIcEENS2_IcEEEEEENS2_ISA_EEEENS2_ISC_EEE16__destroy_vectorC2ERSE_, symObjAddr: 0x25A0, symBinAddr: 0x100003310, symSize: 0x20 }
  - { offsetInCU: 0x124BE, offset: 0x124BE, size: 0x8, addend: 0x0, symName: __ZNKSt3__16vectorINS0_INS_4pairINS0_IfNS_9allocatorIfEEEENS_12basic_stringIcNS_11char_traitsIcEENS2_IcEEEEEENS2_ISA_EEEENS2_ISC_EEE8max_sizeEv, symObjAddr: 0x25C0, symBinAddr: 0x100003330, symSize: 0x60 }
  - { offsetInCU: 0x124E6, offset: 0x124E6, size: 0x8, addend: 0x0, symName: __ZNKSt3__16vectorINS0_INS_4pairINS0_IfNS_9allocatorIfEEEENS_12basic_stringIcNS_11char_traitsIcEENS2_IcEEEEEENS2_ISA_EEEENS2_ISC_EEE20__throw_length_errorB7v160006Ev, symObjAddr: 0x2620, symBinAddr: 0x100003390, symSize: 0x20 }
  - { offsetInCU: 0x1250C, offset: 0x1250C, size: 0x8, addend: 0x0, symName: __ZNSt3__16vectorINS0_INS_4pairINS0_IfNS_9allocatorIfEEEENS_12basic_stringIcNS_11char_traitsIcEENS2_IcEEEEEENS2_ISA_EEEENS2_ISC_EEE7__allocB7v160006Ev, symObjAddr: 0x2680, symBinAddr: 0x1000033F0, symSize: 0x20 }
  - { offsetInCU: 0x12532, offset: 0x12532, size: 0x8, addend: 0x0, symName: __ZNSt3__16vectorINS0_INS_4pairINS0_IfNS_9allocatorIfEEEENS_12basic_stringIcNS_11char_traitsIcEENS2_IcEEEEEENS2_ISA_EEEENS2_ISC_EEE9__end_capB7v160006Ev, symObjAddr: 0x26A0, symBinAddr: 0x100003410, symSize: 0x20 }
  - { offsetInCU: 0x12558, offset: 0x12558, size: 0x8, addend: 0x0, symName: __ZNKSt3__16vectorINS0_INS_4pairINS0_IfNS_9allocatorIfEEEENS_12basic_stringIcNS_11char_traitsIcEENS2_IcEEEEEENS2_ISA_EEEENS2_ISC_EEE14__annotate_newB7v160006Em, symObjAddr: 0x26C0, symBinAddr: 0x100003430, symSize: 0xA0 }
  - { offsetInCU: 0x1258D, offset: 0x1258D, size: 0x8, addend: 0x0, symName: __ZNSt3__116allocator_traitsINS_9allocatorINS_6vectorINS_4pairINS2_IfNS1_IfEEEENS_12basic_stringIcNS_11char_traitsIcEENS1_IcEEEEEENS1_ISB_EEEEEEE8max_sizeB7v160006ISE_vEEmRKSE_, symObjAddr: 0x2790, symBinAddr: 0x100003500, symSize: 0x20 }
  - { offsetInCU: 0x125BB, offset: 0x125BB, size: 0x8, addend: 0x0, symName: __ZNSt3__114numeric_limitsIlE3maxB7v160006Ev, symObjAddr: 0x27B0, symBinAddr: 0x100003520, symSize: 0x10 }
  - { offsetInCU: 0x125E3, offset: 0x125E3, size: 0x8, addend: 0x0, symName: __ZNKSt3__16__lessImmEclB7v160006ERKmS3_, symObjAddr: 0x2820, symBinAddr: 0x100003590, symSize: 0x30 }
  - { offsetInCU: 0x12625, offset: 0x12625, size: 0x8, addend: 0x0, symName: __ZNKSt3__19allocatorINS_6vectorINS_4pairINS1_IfNS0_IfEEEENS_12basic_stringIcNS_11char_traitsIcEENS0_IcEEEEEENS0_ISA_EEEEE8max_sizeB7v160006Ev, symObjAddr: 0x2850, symBinAddr: 0x1000035C0, symSize: 0x20 }
  - { offsetInCU: 0x1264B, offset: 0x1264B, size: 0x8, addend: 0x0, symName: __ZNSt3__123__libcpp_numeric_limitsIlLb1EE3maxB7v160006Ev, symObjAddr: 0x2870, symBinAddr: 0x1000035E0, symSize: 0x10 }
  - { offsetInCU: 0x1265F, offset: 0x1265F, size: 0x8, addend: 0x0, symName: __ZNSt12length_errorC1B7v160006EPKc, symObjAddr: 0x28F0, symBinAddr: 0x100003660, symSize: 0x30 }
  - { offsetInCU: 0x12697, offset: 0x12697, size: 0x8, addend: 0x0, symName: __ZNSt12length_errorC2B7v160006EPKc, symObjAddr: 0x2920, symBinAddr: 0x100003690, symSize: 0x40 }
  - { offsetInCU: 0x126CF, offset: 0x126CF, size: 0x8, addend: 0x0, symName: __ZNSt3__19allocatorINS_6vectorINS_4pairINS1_IfNS0_IfEEEENS_12basic_stringIcNS_11char_traitsIcEENS0_IcEEEEEENS0_ISA_EEEEE8allocateB7v160006Em, symObjAddr: 0x2960, symBinAddr: 0x1000036D0, symSize: 0x50 }
  - { offsetInCU: 0x12703, offset: 0x12703, size: 0x8, addend: 0x0, symName: __ZNSt3__117__compressed_pairIPNS_6vectorINS_4pairINS1_IfNS_9allocatorIfEEEENS_12basic_stringIcNS_11char_traitsIcEENS3_IcEEEEEENS3_ISB_EEEENS3_ISD_EEE6secondB7v160006Ev, symObjAddr: 0x2A30, symBinAddr: 0x1000037A0, symSize: 0x20 }
  - { offsetInCU: 0x12729, offset: 0x12729, size: 0x8, addend: 0x0, symName: __ZNSt3__122__compressed_pair_elemINS_9allocatorINS_6vectorINS_4pairINS2_IfNS1_IfEEEENS_12basic_stringIcNS_11char_traitsIcEENS1_IcEEEEEENS1_ISB_EEEEEELi1ELb1EE5__getB7v160006Ev, symObjAddr: 0x2A50, symBinAddr: 0x1000037C0, symSize: 0x10 }
  - { offsetInCU: 0x1274F, offset: 0x1274F, size: 0x8, addend: 0x0, symName: __ZNSt3__117__compressed_pairIPNS_6vectorINS_4pairINS1_IfNS_9allocatorIfEEEENS_12basic_stringIcNS_11char_traitsIcEENS3_IcEEEEEENS3_ISB_EEEENS3_ISD_EEE5firstB7v160006Ev, symObjAddr: 0x2A60, symBinAddr: 0x1000037D0, symSize: 0x20 }
  - { offsetInCU: 0x12775, offset: 0x12775, size: 0x8, addend: 0x0, symName: __ZNSt3__122__compressed_pair_elemIPNS_6vectorINS_4pairINS1_IfNS_9allocatorIfEEEENS_12basic_stringIcNS_11char_traitsIcEENS3_IcEEEEEENS3_ISB_EEEELi0ELb0EE5__getB7v160006Ev, symObjAddr: 0x2A80, symBinAddr: 0x1000037F0, symSize: 0x10 }
  - { offsetInCU: 0x1279B, offset: 0x1279B, size: 0x8, addend: 0x0, symName: __ZNKSt3__16vectorINS0_INS_4pairINS0_IfNS_9allocatorIfEEEENS_12basic_stringIcNS_11char_traitsIcEENS2_IcEEEEEENS2_ISA_EEEENS2_ISC_EEE31__annotate_contiguous_containerB7v160006EPKvSG_SG_SG_, symObjAddr: 0x2A90, symBinAddr: 0x100003800, symSize: 0x20 }
  - { offsetInCU: 0x127ED, offset: 0x127ED, size: 0x8, addend: 0x0, symName: __ZNKSt3__16vectorINS0_INS_4pairINS0_IfNS_9allocatorIfEEEENS_12basic_stringIcNS_11char_traitsIcEENS2_IcEEEEEENS2_ISA_EEEENS2_ISC_EEE4dataB7v160006Ev, symObjAddr: 0x2AB0, symBinAddr: 0x100003820, symSize: 0x20 }
  - { offsetInCU: 0x12813, offset: 0x12813, size: 0x8, addend: 0x0, symName: __ZNKSt3__16vectorINS0_INS_4pairINS0_IfNS_9allocatorIfEEEENS_12basic_stringIcNS_11char_traitsIcEENS2_IcEEEEEENS2_ISA_EEEENS2_ISC_EEE8capacityB7v160006Ev, symObjAddr: 0x2AD0, symBinAddr: 0x100003840, symSize: 0x40 }
  - { offsetInCU: 0x12839, offset: 0x12839, size: 0x8, addend: 0x0, symName: __ZNKSt3__16vectorINS0_INS_4pairINS0_IfNS_9allocatorIfEEEENS_12basic_stringIcNS_11char_traitsIcEENS2_IcEEEEEENS2_ISA_EEEENS2_ISC_EEE9__end_capB7v160006Ev, symObjAddr: 0x2B20, symBinAddr: 0x100003890, symSize: 0x20 }
  - { offsetInCU: 0x1285F, offset: 0x1285F, size: 0x8, addend: 0x0, symName: __ZNKSt3__117__compressed_pairIPNS_6vectorINS_4pairINS1_IfNS_9allocatorIfEEEENS_12basic_stringIcNS_11char_traitsIcEENS3_IcEEEEEENS3_ISB_EEEENS3_ISD_EEE5firstB7v160006Ev, symObjAddr: 0x2B40, symBinAddr: 0x1000038B0, symSize: 0x20 }
  - { offsetInCU: 0x12885, offset: 0x12885, size: 0x8, addend: 0x0, symName: __ZNKSt3__122__compressed_pair_elemIPNS_6vectorINS_4pairINS1_IfNS_9allocatorIfEEEENS_12basic_stringIcNS_11char_traitsIcEENS3_IcEEEEEENS3_ISB_EEEELi0ELb0EE5__getB7v160006Ev, symObjAddr: 0x2B60, symBinAddr: 0x1000038D0, symSize: 0x10 }
  - { offsetInCU: 0x128C4, offset: 0x128C4, size: 0x8, addend: 0x0, symName: __ZNSt3__16vectorINS0_INS_4pairINS0_IfNS_9allocatorIfEEEENS_12basic_stringIcNS_11char_traitsIcEENS2_IcEEEEEENS2_ISA_EEEENS2_ISC_EEE21_ConstructTransactionC1B7v160006ERSE_m, symObjAddr: 0x2B70, symBinAddr: 0x1000038E0, symSize: 0x30 }
  - { offsetInCU: 0x1290C, offset: 0x1290C, size: 0x8, addend: 0x0, symName: __ZNSt3__16vectorINS0_INS_4pairINS0_IfNS_9allocatorIfEEEENS_12basic_stringIcNS_11char_traitsIcEENS2_IcEEEEEENS2_ISA_EEEENS2_ISC_EEE21_ConstructTransactionD1B7v160006Ev, symObjAddr: 0x2CA0, symBinAddr: 0x100003A10, symSize: 0x20 }
  - { offsetInCU: 0x12936, offset: 0x12936, size: 0x8, addend: 0x0, symName: __ZNSt3__16vectorINS0_INS_4pairINS0_IfNS_9allocatorIfEEEENS_12basic_stringIcNS_11char_traitsIcEENS2_IcEEEEEENS2_ISA_EEEENS2_ISC_EEE21_ConstructTransactionC2B7v160006ERSE_m, symObjAddr: 0x2CC0, symBinAddr: 0x100003A30, symSize: 0x40 }
  - { offsetInCU: 0x1297E, offset: 0x1297E, size: 0x8, addend: 0x0, symName: __ZNSt3__129_AllocatorDestroyRangeReverseINS_9allocatorINS_6vectorINS_4pairINS2_IfNS1_IfEEEENS_12basic_stringIcNS_11char_traitsIcEENS1_IcEEEEEENS1_ISB_EEEEEEPSD_EC1B7v160006ERSE_RSF_SI_, symObjAddr: 0x2D60, symBinAddr: 0x100003AD0, symSize: 0x40 }
  - { offsetInCU: 0x129D5, offset: 0x129D5, size: 0x8, addend: 0x0, symName: __ZNSt3__116allocator_traitsINS_9allocatorINS_6vectorINS_4pairINS2_IfNS1_IfEEEENS_12basic_stringIcNS_11char_traitsIcEENS1_IcEEEEEENS1_ISB_EEEEEEE9constructB7v160006ISD_JRSD_EvEEvRSE_PT_DpOT0_, symObjAddr: 0x2DA0, symBinAddr: 0x100003B10, symSize: 0x30 }
  - { offsetInCU: 0x12A2C, offset: 0x12A2C, size: 0x8, addend: 0x0, symName: __ZNSt3__128__exception_guard_exceptionsINS_29_AllocatorDestroyRangeReverseINS_9allocatorINS_6vectorINS_4pairINS3_IfNS2_IfEEEENS_12basic_stringIcNS_11char_traitsIcEENS2_IcEEEEEENS2_ISC_EEEEEEPSE_EEE10__completeB7v160006Ev, symObjAddr: 0x2DD0, symBinAddr: 0x100003B40, symSize: 0x20 }
  - { offsetInCU: 0x12A52, offset: 0x12A52, size: 0x8, addend: 0x0, symName: __ZNSt3__128__exception_guard_exceptionsINS_29_AllocatorDestroyRangeReverseINS_9allocatorINS_6vectorINS_4pairINS3_IfNS2_IfEEEENS_12basic_stringIcNS_11char_traitsIcEENS2_IcEEEEEENS2_ISC_EEEEEEPSE_EEED1B7v160006Ev, symObjAddr: 0x2DF0, symBinAddr: 0x100003B60, symSize: 0x20 }
  - { offsetInCU: 0x12A7C, offset: 0x12A7C, size: 0x8, addend: 0x0, symName: __ZNSt3__128__exception_guard_exceptionsINS_29_AllocatorDestroyRangeReverseINS_9allocatorINS_6vectorINS_4pairINS3_IfNS2_IfEEEENS_12basic_stringIcNS_11char_traitsIcEENS2_IcEEEEEENS2_ISC_EEEEEEPSE_EEEC1B7v160006ESH_, symObjAddr: 0x2E10, symBinAddr: 0x100003B80, symSize: 0x40 }
  - { offsetInCU: 0x12AB4, offset: 0x12AB4, size: 0x8, addend: 0x0, symName: __ZNSt3__128__exception_guard_exceptionsINS_29_AllocatorDestroyRangeReverseINS_9allocatorINS_6vectorINS_4pairINS3_IfNS2_IfEEEENS_12basic_stringIcNS_11char_traitsIcEENS2_IcEEEEEENS2_ISC_EEEEEEPSE_EEEC2B7v160006ESH_, symObjAddr: 0x2E50, symBinAddr: 0x100003BC0, symSize: 0x30 }
  - { offsetInCU: 0x12AEC, offset: 0x12AEC, size: 0x8, addend: 0x0, symName: __ZNSt3__129_AllocatorDestroyRangeReverseINS_9allocatorINS_6vectorINS_4pairINS2_IfNS1_IfEEEENS_12basic_stringIcNS_11char_traitsIcEENS1_IcEEEEEENS1_ISB_EEEEEEPSD_EC2B7v160006ERSE_RSF_SI_, symObjAddr: 0x2E80, symBinAddr: 0x100003BF0, symSize: 0x40 }
  - { offsetInCU: 0x12B43, offset: 0x12B43, size: 0x8, addend: 0x0, symName: __ZNSt3__19allocatorINS_6vectorINS_4pairINS1_IfNS0_IfEEEENS_12basic_stringIcNS_11char_traitsIcEENS0_IcEEEEEENS0_ISA_EEEEE9constructB7v160006ISC_JRSC_EEEvPT_DpOT0_, symObjAddr: 0x2EC0, symBinAddr: 0x100003C30, symSize: 0x30 }
  - { offsetInCU: 0x12B99, offset: 0x12B99, size: 0x8, addend: 0x0, symName: __ZNSt3__128__exception_guard_exceptionsINS_29_AllocatorDestroyRangeReverseINS_9allocatorINS_6vectorINS_4pairINS3_IfNS2_IfEEEENS_12basic_stringIcNS_11char_traitsIcEENS2_IcEEEEEENS2_ISC_EEEEEEPSE_EEED2B7v160006Ev, symObjAddr: 0x2EF0, symBinAddr: 0x100003C60, symSize: 0x40 }
  - { offsetInCU: 0x12BC3, offset: 0x12BC3, size: 0x8, addend: 0x0, symName: __ZNKSt3__129_AllocatorDestroyRangeReverseINS_9allocatorINS_6vectorINS_4pairINS2_IfNS1_IfEEEENS_12basic_stringIcNS_11char_traitsIcEENS1_IcEEEEEENS1_ISB_EEEEEEPSD_EclB7v160006Ev, symObjAddr: 0x2F30, symBinAddr: 0x100003CA0, symSize: 0x60 }
  - { offsetInCU: 0x12BE9, offset: 0x12BE9, size: 0x8, addend: 0x0, symName: __ZNSt3__116reverse_iteratorIPNS_6vectorINS_4pairINS1_IfNS_9allocatorIfEEEENS_12basic_stringIcNS_11char_traitsIcEENS3_IcEEEEEENS3_ISB_EEEEEC1B7v160006ESE_, symObjAddr: 0x3000, symBinAddr: 0x100003D70, symSize: 0x30 }
  - { offsetInCU: 0x12C21, offset: 0x12C21, size: 0x8, addend: 0x0, symName: __ZNSt3__116allocator_traitsINS_9allocatorINS_6vectorINS_4pairINS2_IfNS1_IfEEEENS_12basic_stringIcNS_11char_traitsIcEENS1_IcEEEEEENS1_ISB_EEEEEEE7destroyB7v160006ISD_vEEvRSE_PT_, symObjAddr: 0x3070, symBinAddr: 0x100003DE0, symSize: 0x30 }
  - { offsetInCU: 0x12C5E, offset: 0x12C5E, size: 0x8, addend: 0x0, symName: __ZNSt3__116reverse_iteratorIPNS_6vectorINS_4pairINS1_IfNS_9allocatorIfEEEENS_12basic_stringIcNS_11char_traitsIcEENS3_IcEEEEEENS3_ISB_EEEEEppB7v160006Ev, symObjAddr: 0x30C0, symBinAddr: 0x100003E30, symSize: 0x20 }
  - { offsetInCU: 0x12C84, offset: 0x12C84, size: 0x8, addend: 0x0, symName: __ZNKSt3__116reverse_iteratorIPNS_6vectorINS_4pairINS1_IfNS_9allocatorIfEEEENS_12basic_stringIcNS_11char_traitsIcEENS3_IcEEEEEENS3_ISB_EEEEE4baseB7v160006Ev, symObjAddr: 0x30E0, symBinAddr: 0x100003E50, symSize: 0x20 }
  - { offsetInCU: 0x12CAA, offset: 0x12CAA, size: 0x8, addend: 0x0, symName: __ZNSt3__19allocatorINS_6vectorINS_4pairINS1_IfNS0_IfEEEENS_12basic_stringIcNS_11char_traitsIcEENS0_IcEEEEEENS0_ISA_EEEEE7destroyB7v160006EPSC_, symObjAddr: 0x3100, symBinAddr: 0x100003E70, symSize: 0x20 }
  - { offsetInCU: 0x12CE3, offset: 0x12CE3, size: 0x8, addend: 0x0, symName: __ZNSt3__119__to_address_helperINS_16reverse_iteratorIPNS_6vectorINS_4pairINS2_IfNS_9allocatorIfEEEENS_12basic_stringIcNS_11char_traitsIcEENS4_IcEEEEEENS4_ISC_EEEEEEvE6__callB7v160006ERKSG_, symObjAddr: 0x3120, symBinAddr: 0x100003E90, symSize: 0x40 }
  - { offsetInCU: 0x12D06, offset: 0x12D06, size: 0x8, addend: 0x0, symName: __ZNKSt3__116reverse_iteratorIPNS_6vectorINS_4pairINS1_IfNS_9allocatorIfEEEENS_12basic_stringIcNS_11char_traitsIcEENS3_IcEEEEEENS3_ISB_EEEEEptB7v160006Ev, symObjAddr: 0x3160, symBinAddr: 0x100003ED0, symSize: 0x20 }
  - { offsetInCU: 0x12D2C, offset: 0x12D2C, size: 0x8, addend: 0x0, symName: __ZNKSt3__116reverse_iteratorIPNS_6vectorINS_4pairINS1_IfNS_9allocatorIfEEEENS_12basic_stringIcNS_11char_traitsIcEENS3_IcEEEEEENS3_ISB_EEEEEdeB7v160006Ev, symObjAddr: 0x3180, symBinAddr: 0x100003EF0, symSize: 0x30 }
  - { offsetInCU: 0x12D60, offset: 0x12D60, size: 0x8, addend: 0x0, symName: __ZNSt3__116reverse_iteratorIPNS_6vectorINS_4pairINS1_IfNS_9allocatorIfEEEENS_12basic_stringIcNS_11char_traitsIcEENS3_IcEEEEEENS3_ISB_EEEEEC2B7v160006ESE_, symObjAddr: 0x31B0, symBinAddr: 0x100003F20, symSize: 0x30 }
  - { offsetInCU: 0x12D98, offset: 0x12D98, size: 0x8, addend: 0x0, symName: __ZNSt3__16vectorINS0_INS_4pairINS0_IfNS_9allocatorIfEEEENS_12basic_stringIcNS_11char_traitsIcEENS2_IcEEEEEENS2_ISA_EEEENS2_ISC_EEE21_ConstructTransactionD2B7v160006Ev, symObjAddr: 0x31E0, symBinAddr: 0x100003F50, symSize: 0x20 }
  - { offsetInCU: 0x12DC2, offset: 0x12DC2, size: 0x8, addend: 0x0, symName: __ZNSt3__128__exception_guard_exceptionsINS_6vectorINS1_INS_4pairINS1_IfNS_9allocatorIfEEEENS_12basic_stringIcNS_11char_traitsIcEENS3_IcEEEEEENS3_ISB_EEEENS3_ISD_EEE16__destroy_vectorEED2B7v160006Ev, symObjAddr: 0x3200, symBinAddr: 0x100003F70, symSize: 0x40 }
  - { offsetInCU: 0x12DEC, offset: 0x12DEC, size: 0x8, addend: 0x0, symName: __ZNSt3__16vectorINS0_INS_4pairINS0_IfNS_9allocatorIfEEEENS_12basic_stringIcNS_11char_traitsIcEENS2_IcEEEEEENS2_ISA_EEEENS2_ISC_EEE16__destroy_vectorclB7v160006Ev, symObjAddr: 0x3240, symBinAddr: 0x100003FB0, symSize: 0x90 }
  - { offsetInCU: 0x12E12, offset: 0x12E12, size: 0x8, addend: 0x0, symName: __ZNKSt3__16vectorINS0_INS_4pairINS0_IfNS_9allocatorIfEEEENS_12basic_stringIcNS_11char_traitsIcEENS2_IcEEEEEENS2_ISA_EEEENS2_ISC_EEE17__annotate_deleteB7v160006Ev, symObjAddr: 0x32D0, symBinAddr: 0x100004040, symSize: 0xB0 }
  - { offsetInCU: 0x12E38, offset: 0x12E38, size: 0x8, addend: 0x0, symName: __ZNSt3__16vectorINS0_INS_4pairINS0_IfNS_9allocatorIfEEEENS_12basic_stringIcNS_11char_traitsIcEENS2_IcEEEEEENS2_ISA_EEEENS2_ISC_EEE7__clearB7v160006Ev, symObjAddr: 0x3390, symBinAddr: 0x100004100, symSize: 0x20 }
  - { offsetInCU: 0x12E5E, offset: 0x12E5E, size: 0x8, addend: 0x0, symName: __ZNSt3__116allocator_traitsINS_9allocatorINS_6vectorINS_4pairINS2_IfNS1_IfEEEENS_12basic_stringIcNS_11char_traitsIcEENS1_IcEEEEEENS1_ISB_EEEEEEE10deallocateB7v160006ERSE_PSD_m, symObjAddr: 0x33B0, symBinAddr: 0x100004120, symSize: 0x30 }
  - { offsetInCU: 0x12EA0, offset: 0x12EA0, size: 0x8, addend: 0x0, symName: __ZNSt3__16vectorINS0_INS_4pairINS0_IfNS_9allocatorIfEEEENS_12basic_stringIcNS_11char_traitsIcEENS2_IcEEEEEENS2_ISA_EEEENS2_ISC_EEE22__base_destruct_at_endB7v160006EPSC_, symObjAddr: 0x33E0, symBinAddr: 0x100004150, symSize: 0x80 }
  - { offsetInCU: 0x12EE4, offset: 0x12EE4, size: 0x8, addend: 0x0, symName: __ZNSt3__19allocatorINS_6vectorINS_4pairINS1_IfNS0_IfEEEENS_12basic_stringIcNS_11char_traitsIcEENS0_IcEEEEEENS0_ISA_EEEEE10deallocateB7v160006EPSC_m, symObjAddr: 0x3460, symBinAddr: 0x1000041D0, symSize: 0x50 }
  - { offsetInCU: 0x12F26, offset: 0x12F26, size: 0x8, addend: 0x0, symName: __ZNSt3__16vectorINS_4pairINS0_IfNS_9allocatorIfEEEENS_12basic_stringIcNS_11char_traitsIcEENS2_IcEEEEEENS2_ISA_EEEC2ERKSC_, symObjAddr: 0x3520, symBinAddr: 0x100004290, symSize: 0x110 }
  - { offsetInCU: 0x12F90, offset: 0x12F90, size: 0x8, addend: 0x0, symName: __ZNSt3__116allocator_traitsINS_9allocatorINS_4pairINS_6vectorIfNS1_IfEEEENS_12basic_stringIcNS_11char_traitsIcEENS1_IcEEEEEEEEE37select_on_container_copy_constructionB7v160006ISC_vvEESC_RKSC_, symObjAddr: 0x3630, symBinAddr: 0x1000043A0, symSize: 0x10 }
  - { offsetInCU: 0x12FBF, offset: 0x12FBF, size: 0x8, addend: 0x0, symName: __ZNKSt3__16vectorINS_4pairINS0_IfNS_9allocatorIfEEEENS_12basic_stringIcNS_11char_traitsIcEENS2_IcEEEEEENS2_ISA_EEE7__allocB7v160006Ev, symObjAddr: 0x3640, symBinAddr: 0x1000043B0, symSize: 0x20 }
  - { offsetInCU: 0x12FEA, offset: 0x12FEA, size: 0x8, addend: 0x0, symName: __ZNSt3__117__compressed_pairIPNS_4pairINS_6vectorIfNS_9allocatorIfEEEENS_12basic_stringIcNS_11char_traitsIcEENS3_IcEEEEEENS3_ISB_EEEC1B7v160006IDnSD_EEOT_OT0_, symObjAddr: 0x3660, symBinAddr: 0x1000043D0, symSize: 0x30 }
  - { offsetInCU: 0x13042, offset: 0x13042, size: 0x8, addend: 0x0, symName: __ZNSt3__16vectorINS_4pairINS0_IfNS_9allocatorIfEEEENS_12basic_stringIcNS_11char_traitsIcEENS2_IcEEEEEENS2_ISA_EEE16__destroy_vectorC1ERSC_, symObjAddr: 0x36D0, symBinAddr: 0x100004440, symSize: 0x30 }
  - { offsetInCU: 0x1307B, offset: 0x1307B, size: 0x8, addend: 0x0, symName: __ZNSt3__16vectorINS_4pairINS0_IfNS_9allocatorIfEEEENS_12basic_stringIcNS_11char_traitsIcEENS2_IcEEEEEENS2_ISA_EEE11__vallocateB7v160006Em, symObjAddr: 0x3710, symBinAddr: 0x100004480, symSize: 0xA0 }
  - { offsetInCU: 0x130BF, offset: 0x130BF, size: 0x8, addend: 0x0, symName: __ZNSt3__16vectorINS_4pairINS0_IfNS_9allocatorIfEEEENS_12basic_stringIcNS_11char_traitsIcEENS2_IcEEEEEENS2_ISA_EEE18__construct_at_endIPSA_Li0EEEvT_SF_m, symObjAddr: 0x37B0, symBinAddr: 0x100004520, symSize: 0x90 }
  - { offsetInCU: 0x13132, offset: 0x13132, size: 0x8, addend: 0x0, symName: __ZNSt3__128__exception_guard_exceptionsINS_6vectorINS_4pairINS1_IfNS_9allocatorIfEEEENS_12basic_stringIcNS_11char_traitsIcEENS3_IcEEEEEENS3_ISB_EEE16__destroy_vectorEE10__completeB7v160006Ev, symObjAddr: 0x3840, symBinAddr: 0x1000045B0, symSize: 0x20 }
  - { offsetInCU: 0x13158, offset: 0x13158, size: 0x8, addend: 0x0, symName: __ZNSt3__128__exception_guard_exceptionsINS_6vectorINS_4pairINS1_IfNS_9allocatorIfEEEENS_12basic_stringIcNS_11char_traitsIcEENS3_IcEEEEEENS3_ISB_EEE16__destroy_vectorEED1B7v160006Ev, symObjAddr: 0x3860, symBinAddr: 0x1000045D0, symSize: 0x20 }
  - { offsetInCU: 0x13182, offset: 0x13182, size: 0x8, addend: 0x0, symName: __ZNKSt3__117__compressed_pairIPNS_4pairINS_6vectorIfNS_9allocatorIfEEEENS_12basic_stringIcNS_11char_traitsIcEENS3_IcEEEEEENS3_ISB_EEE6secondB7v160006Ev, symObjAddr: 0x3880, symBinAddr: 0x1000045F0, symSize: 0x20 }
  - { offsetInCU: 0x131A8, offset: 0x131A8, size: 0x8, addend: 0x0, symName: __ZNKSt3__122__compressed_pair_elemINS_9allocatorINS_4pairINS_6vectorIfNS1_IfEEEENS_12basic_stringIcNS_11char_traitsIcEENS1_IcEEEEEEEELi1ELb1EE5__getB7v160006Ev, symObjAddr: 0x38A0, symBinAddr: 0x100004610, symSize: 0x10 }
  - { offsetInCU: 0x131CE, offset: 0x131CE, size: 0x8, addend: 0x0, symName: __ZNSt3__117__compressed_pairIPNS_4pairINS_6vectorIfNS_9allocatorIfEEEENS_12basic_stringIcNS_11char_traitsIcEENS3_IcEEEEEENS3_ISB_EEEC2B7v160006IDnSD_EEOT_OT0_, symObjAddr: 0x38B0, symBinAddr: 0x100004620, symSize: 0x40 }
  - { offsetInCU: 0x13226, offset: 0x13226, size: 0x8, addend: 0x0, symName: __ZNSt3__122__compressed_pair_elemIPNS_4pairINS_6vectorIfNS_9allocatorIfEEEENS_12basic_stringIcNS_11char_traitsIcEENS3_IcEEEEEELi0ELb0EEC2B7v160006IDnvEEOT_, symObjAddr: 0x38F0, symBinAddr: 0x100004660, symSize: 0x20 }
  - { offsetInCU: 0x13268, offset: 0x13268, size: 0x8, addend: 0x0, symName: __ZNSt3__122__compressed_pair_elemINS_9allocatorINS_4pairINS_6vectorIfNS1_IfEEEENS_12basic_stringIcNS_11char_traitsIcEENS1_IcEEEEEEEELi1ELb1EEC2B7v160006ISC_vEEOT_, symObjAddr: 0x3910, symBinAddr: 0x100004680, symSize: 0x10 }
  - { offsetInCU: 0x132AA, offset: 0x132AA, size: 0x8, addend: 0x0, symName: __ZNSt3__128__exception_guard_exceptionsINS_6vectorINS_4pairINS1_IfNS_9allocatorIfEEEENS_12basic_stringIcNS_11char_traitsIcEENS3_IcEEEEEENS3_ISB_EEE16__destroy_vectorEEC1B7v160006ESE_, symObjAddr: 0x3920, symBinAddr: 0x100004690, symSize: 0x30 }
  - { offsetInCU: 0x132E2, offset: 0x132E2, size: 0x8, addend: 0x0, symName: __ZNSt3__128__exception_guard_exceptionsINS_6vectorINS_4pairINS1_IfNS_9allocatorIfEEEENS_12basic_stringIcNS_11char_traitsIcEENS3_IcEEEEEENS3_ISB_EEE16__destroy_vectorEEC2B7v160006ESE_, symObjAddr: 0x3950, symBinAddr: 0x1000046C0, symSize: 0x20 }
  - { offsetInCU: 0x1331A, offset: 0x1331A, size: 0x8, addend: 0x0, symName: __ZNSt3__16vectorINS_4pairINS0_IfNS_9allocatorIfEEEENS_12basic_stringIcNS_11char_traitsIcEENS2_IcEEEEEENS2_ISA_EEE16__destroy_vectorC2ERSC_, symObjAddr: 0x3970, symBinAddr: 0x1000046E0, symSize: 0x20 }
  - { offsetInCU: 0x13353, offset: 0x13353, size: 0x8, addend: 0x0, symName: __ZNKSt3__16vectorINS_4pairINS0_IfNS_9allocatorIfEEEENS_12basic_stringIcNS_11char_traitsIcEENS2_IcEEEEEENS2_ISA_EEE8max_sizeEv, symObjAddr: 0x3990, symBinAddr: 0x100004700, symSize: 0x60 }
  - { offsetInCU: 0x1337B, offset: 0x1337B, size: 0x8, addend: 0x0, symName: __ZNKSt3__16vectorINS_4pairINS0_IfNS_9allocatorIfEEEENS_12basic_stringIcNS_11char_traitsIcEENS2_IcEEEEEENS2_ISA_EEE20__throw_length_errorB7v160006Ev, symObjAddr: 0x39F0, symBinAddr: 0x100004760, symSize: 0x20 }
  - { offsetInCU: 0x133A1, offset: 0x133A1, size: 0x8, addend: 0x0, symName: __ZNSt3__16vectorINS_4pairINS0_IfNS_9allocatorIfEEEENS_12basic_stringIcNS_11char_traitsIcEENS2_IcEEEEEENS2_ISA_EEE7__allocB7v160006Ev, symObjAddr: 0x3A50, symBinAddr: 0x1000047C0, symSize: 0x20 }
  - { offsetInCU: 0x133C7, offset: 0x133C7, size: 0x8, addend: 0x0, symName: __ZNSt3__16vectorINS_4pairINS0_IfNS_9allocatorIfEEEENS_12basic_stringIcNS_11char_traitsIcEENS2_IcEEEEEENS2_ISA_EEE9__end_capB7v160006Ev, symObjAddr: 0x3A70, symBinAddr: 0x1000047E0, symSize: 0x20 }
  - { offsetInCU: 0x133ED, offset: 0x133ED, size: 0x8, addend: 0x0, symName: __ZNKSt3__16vectorINS_4pairINS0_IfNS_9allocatorIfEEEENS_12basic_stringIcNS_11char_traitsIcEENS2_IcEEEEEENS2_ISA_EEE14__annotate_newB7v160006Em, symObjAddr: 0x3A90, symBinAddr: 0x100004800, symSize: 0xA0 }
  - { offsetInCU: 0x13422, offset: 0x13422, size: 0x8, addend: 0x0, symName: __ZNSt3__116allocator_traitsINS_9allocatorINS_4pairINS_6vectorIfNS1_IfEEEENS_12basic_stringIcNS_11char_traitsIcEENS1_IcEEEEEEEEE8max_sizeB7v160006ISC_vEEmRKSC_, symObjAddr: 0x3B30, symBinAddr: 0x1000048A0, symSize: 0x20 }
  - { offsetInCU: 0x13450, offset: 0x13450, size: 0x8, addend: 0x0, symName: __ZNKSt3__19allocatorINS_4pairINS_6vectorIfNS0_IfEEEENS_12basic_stringIcNS_11char_traitsIcEENS0_IcEEEEEEE8max_sizeB7v160006Ev, symObjAddr: 0x3B50, symBinAddr: 0x1000048C0, symSize: 0x20 }
  - { offsetInCU: 0x13476, offset: 0x13476, size: 0x8, addend: 0x0, symName: __ZNSt3__19allocatorINS_4pairINS_6vectorIfNS0_IfEEEENS_12basic_stringIcNS_11char_traitsIcEENS0_IcEEEEEEE8allocateB7v160006Em, symObjAddr: 0x3B70, symBinAddr: 0x1000048E0, symSize: 0x50 }
  - { offsetInCU: 0x134AA, offset: 0x134AA, size: 0x8, addend: 0x0, symName: __ZNSt3__117__compressed_pairIPNS_4pairINS_6vectorIfNS_9allocatorIfEEEENS_12basic_stringIcNS_11char_traitsIcEENS3_IcEEEEEENS3_ISB_EEE6secondB7v160006Ev, symObjAddr: 0x3BC0, symBinAddr: 0x100004930, symSize: 0x20 }
  - { offsetInCU: 0x134D0, offset: 0x134D0, size: 0x8, addend: 0x0, symName: __ZNSt3__122__compressed_pair_elemINS_9allocatorINS_4pairINS_6vectorIfNS1_IfEEEENS_12basic_stringIcNS_11char_traitsIcEENS1_IcEEEEEEEELi1ELb1EE5__getB7v160006Ev, symObjAddr: 0x3BE0, symBinAddr: 0x100004950, symSize: 0x10 }
  - { offsetInCU: 0x134F6, offset: 0x134F6, size: 0x8, addend: 0x0, symName: __ZNSt3__117__compressed_pairIPNS_4pairINS_6vectorIfNS_9allocatorIfEEEENS_12basic_stringIcNS_11char_traitsIcEENS3_IcEEEEEENS3_ISB_EEE5firstB7v160006Ev, symObjAddr: 0x3BF0, symBinAddr: 0x100004960, symSize: 0x20 }
  - { offsetInCU: 0x1351C, offset: 0x1351C, size: 0x8, addend: 0x0, symName: __ZNSt3__122__compressed_pair_elemIPNS_4pairINS_6vectorIfNS_9allocatorIfEEEENS_12basic_stringIcNS_11char_traitsIcEENS3_IcEEEEEELi0ELb0EE5__getB7v160006Ev, symObjAddr: 0x3C10, symBinAddr: 0x100004980, symSize: 0x10 }
  - { offsetInCU: 0x13542, offset: 0x13542, size: 0x8, addend: 0x0, symName: __ZNKSt3__16vectorINS_4pairINS0_IfNS_9allocatorIfEEEENS_12basic_stringIcNS_11char_traitsIcEENS2_IcEEEEEENS2_ISA_EEE31__annotate_contiguous_containerB7v160006EPKvSE_SE_SE_, symObjAddr: 0x3C20, symBinAddr: 0x100004990, symSize: 0x20 }
  - { offsetInCU: 0x13594, offset: 0x13594, size: 0x8, addend: 0x0, symName: __ZNKSt3__16vectorINS_4pairINS0_IfNS_9allocatorIfEEEENS_12basic_stringIcNS_11char_traitsIcEENS2_IcEEEEEENS2_ISA_EEE4dataB7v160006Ev, symObjAddr: 0x3C40, symBinAddr: 0x1000049B0, symSize: 0x20 }
  - { offsetInCU: 0x135BA, offset: 0x135BA, size: 0x8, addend: 0x0, symName: __ZNKSt3__16vectorINS_4pairINS0_IfNS_9allocatorIfEEEENS_12basic_stringIcNS_11char_traitsIcEENS2_IcEEEEEENS2_ISA_EEE8capacityB7v160006Ev, symObjAddr: 0x3C60, symBinAddr: 0x1000049D0, symSize: 0x40 }
  - { offsetInCU: 0x135E0, offset: 0x135E0, size: 0x8, addend: 0x0, symName: __ZNKSt3__16vectorINS_4pairINS0_IfNS_9allocatorIfEEEENS_12basic_stringIcNS_11char_traitsIcEENS2_IcEEEEEENS2_ISA_EEE9__end_capB7v160006Ev, symObjAddr: 0x3CB0, symBinAddr: 0x100004A20, symSize: 0x20 }
  - { offsetInCU: 0x13606, offset: 0x13606, size: 0x8, addend: 0x0, symName: __ZNKSt3__117__compressed_pairIPNS_4pairINS_6vectorIfNS_9allocatorIfEEEENS_12basic_stringIcNS_11char_traitsIcEENS3_IcEEEEEENS3_ISB_EEE5firstB7v160006Ev, symObjAddr: 0x3CD0, symBinAddr: 0x100004A40, symSize: 0x20 }
  - { offsetInCU: 0x1362C, offset: 0x1362C, size: 0x8, addend: 0x0, symName: __ZNKSt3__122__compressed_pair_elemIPNS_4pairINS_6vectorIfNS_9allocatorIfEEEENS_12basic_stringIcNS_11char_traitsIcEENS3_IcEEEEEELi0ELb0EE5__getB7v160006Ev, symObjAddr: 0x3CF0, symBinAddr: 0x100004A60, symSize: 0x10 }
  - { offsetInCU: 0x1366B, offset: 0x1366B, size: 0x8, addend: 0x0, symName: __ZNSt3__16vectorINS_4pairINS0_IfNS_9allocatorIfEEEENS_12basic_stringIcNS_11char_traitsIcEENS2_IcEEEEEENS2_ISA_EEE21_ConstructTransactionC1B7v160006ERSC_m, symObjAddr: 0x3D00, symBinAddr: 0x100004A70, symSize: 0x30 }
  - { offsetInCU: 0x136B3, offset: 0x136B3, size: 0x8, addend: 0x0, symName: __ZNSt3__16vectorINS_4pairINS0_IfNS_9allocatorIfEEEENS_12basic_stringIcNS_11char_traitsIcEENS2_IcEEEEEENS2_ISA_EEE21_ConstructTransactionD1B7v160006Ev, symObjAddr: 0x3E30, symBinAddr: 0x100004BA0, symSize: 0x20 }
  - { offsetInCU: 0x136DD, offset: 0x136DD, size: 0x8, addend: 0x0, symName: __ZNSt3__16vectorINS_4pairINS0_IfNS_9allocatorIfEEEENS_12basic_stringIcNS_11char_traitsIcEENS2_IcEEEEEENS2_ISA_EEE21_ConstructTransactionC2B7v160006ERSC_m, symObjAddr: 0x3E50, symBinAddr: 0x100004BC0, symSize: 0x40 }
  - { offsetInCU: 0x13725, offset: 0x13725, size: 0x8, addend: 0x0, symName: __ZNSt3__129_AllocatorDestroyRangeReverseINS_9allocatorINS_4pairINS_6vectorIfNS1_IfEEEENS_12basic_stringIcNS_11char_traitsIcEENS1_IcEEEEEEEEPSB_EC1B7v160006ERSC_RSD_SG_, symObjAddr: 0x3EF0, symBinAddr: 0x100004C60, symSize: 0x40 }
  - { offsetInCU: 0x1377C, offset: 0x1377C, size: 0x8, addend: 0x0, symName: __ZNSt3__116allocator_traitsINS_9allocatorINS_4pairINS_6vectorIfNS1_IfEEEENS_12basic_stringIcNS_11char_traitsIcEENS1_IcEEEEEEEEE9constructB7v160006ISB_JRSB_EvEEvRSC_PT_DpOT0_, symObjAddr: 0x3F30, symBinAddr: 0x100004CA0, symSize: 0x30 }
  - { offsetInCU: 0x137D3, offset: 0x137D3, size: 0x8, addend: 0x0, symName: __ZNSt3__128__exception_guard_exceptionsINS_29_AllocatorDestroyRangeReverseINS_9allocatorINS_4pairINS_6vectorIfNS2_IfEEEENS_12basic_stringIcNS_11char_traitsIcEENS2_IcEEEEEEEEPSC_EEE10__completeB7v160006Ev, symObjAddr: 0x3F60, symBinAddr: 0x100004CD0, symSize: 0x20 }
  - { offsetInCU: 0x137F9, offset: 0x137F9, size: 0x8, addend: 0x0, symName: __ZNSt3__128__exception_guard_exceptionsINS_29_AllocatorDestroyRangeReverseINS_9allocatorINS_4pairINS_6vectorIfNS2_IfEEEENS_12basic_stringIcNS_11char_traitsIcEENS2_IcEEEEEEEEPSC_EEED1B7v160006Ev, symObjAddr: 0x3F80, symBinAddr: 0x100004CF0, symSize: 0x20 }
  - { offsetInCU: 0x13823, offset: 0x13823, size: 0x8, addend: 0x0, symName: __ZNSt3__128__exception_guard_exceptionsINS_29_AllocatorDestroyRangeReverseINS_9allocatorINS_4pairINS_6vectorIfNS2_IfEEEENS_12basic_stringIcNS_11char_traitsIcEENS2_IcEEEEEEEEPSC_EEEC1B7v160006ESF_, symObjAddr: 0x3FA0, symBinAddr: 0x100004D10, symSize: 0x40 }
  - { offsetInCU: 0x1385B, offset: 0x1385B, size: 0x8, addend: 0x0, symName: __ZNSt3__128__exception_guard_exceptionsINS_29_AllocatorDestroyRangeReverseINS_9allocatorINS_4pairINS_6vectorIfNS2_IfEEEENS_12basic_stringIcNS_11char_traitsIcEENS2_IcEEEEEEEEPSC_EEEC2B7v160006ESF_, symObjAddr: 0x3FE0, symBinAddr: 0x100004D50, symSize: 0x30 }
  - { offsetInCU: 0x13893, offset: 0x13893, size: 0x8, addend: 0x0, symName: __ZNSt3__129_AllocatorDestroyRangeReverseINS_9allocatorINS_4pairINS_6vectorIfNS1_IfEEEENS_12basic_stringIcNS_11char_traitsIcEENS1_IcEEEEEEEEPSB_EC2B7v160006ERSC_RSD_SG_, symObjAddr: 0x4010, symBinAddr: 0x100004D80, symSize: 0x40 }
  - { offsetInCU: 0x138EA, offset: 0x138EA, size: 0x8, addend: 0x0, symName: __ZNSt3__19allocatorINS_4pairINS_6vectorIfNS0_IfEEEENS_12basic_stringIcNS_11char_traitsIcEENS0_IcEEEEEEE9constructB7v160006ISA_JRSA_EEEvPT_DpOT0_, symObjAddr: 0x4050, symBinAddr: 0x100004DC0, symSize: 0x30 }
  - { offsetInCU: 0x13940, offset: 0x13940, size: 0x8, addend: 0x0, symName: __ZNSt3__14pairINS_6vectorIfNS_9allocatorIfEEEENS_12basic_stringIcNS_11char_traitsIcEENS2_IcEEEEEC1ERKSA_, symObjAddr: 0x4080, symBinAddr: 0x100004DF0, symSize: 0x30 }
  - { offsetInCU: 0x13974, offset: 0x13974, size: 0x8, addend: 0x0, symName: __ZNSt3__14pairINS_6vectorIfNS_9allocatorIfEEEENS_12basic_stringIcNS_11char_traitsIcEENS2_IcEEEEEC2ERKSA_, symObjAddr: 0x40B0, symBinAddr: 0x100004E20, symSize: 0x60 }
  - { offsetInCU: 0x139A8, offset: 0x139A8, size: 0x8, addend: 0x0, symName: __ZNSt3__16vectorIfNS_9allocatorIfEEEC1ERKS3_, symObjAddr: 0x4110, symBinAddr: 0x100004E80, symSize: 0x30 }
  - { offsetInCU: 0x139E3, offset: 0x139E3, size: 0x8, addend: 0x0, symName: __ZNSt3__16vectorIfNS_9allocatorIfEEEC2ERKS3_, symObjAddr: 0x4140, symBinAddr: 0x100004EB0, symSize: 0x110 }
  - { offsetInCU: 0x13A4D, offset: 0x13A4D, size: 0x8, addend: 0x0, symName: __ZNSt3__116allocator_traitsINS_9allocatorIfEEE37select_on_container_copy_constructionB7v160006IS2_vvEES2_RKS2_, symObjAddr: 0x4250, symBinAddr: 0x100004FC0, symSize: 0x10 }
  - { offsetInCU: 0x13A7C, offset: 0x13A7C, size: 0x8, addend: 0x0, symName: __ZNKSt3__16vectorIfNS_9allocatorIfEEE7__allocB7v160006Ev, symObjAddr: 0x4260, symBinAddr: 0x100004FD0, symSize: 0x20 }
  - { offsetInCU: 0x13AA7, offset: 0x13AA7, size: 0x8, addend: 0x0, symName: __ZNSt3__117__compressed_pairIPfNS_9allocatorIfEEEC1B7v160006IDnS3_EEOT_OT0_, symObjAddr: 0x4280, symBinAddr: 0x100004FF0, symSize: 0x30 }
  - { offsetInCU: 0x13AFF, offset: 0x13AFF, size: 0x8, addend: 0x0, symName: __ZNSt3__16vectorIfNS_9allocatorIfEEE16__destroy_vectorC1ERS3_, symObjAddr: 0x42F0, symBinAddr: 0x100005060, symSize: 0x30 }
  - { offsetInCU: 0x13B38, offset: 0x13B38, size: 0x8, addend: 0x0, symName: __ZNSt3__16vectorIfNS_9allocatorIfEEE11__vallocateB7v160006Em, symObjAddr: 0x4330, symBinAddr: 0x1000050A0, symSize: 0xA0 }
  - { offsetInCU: 0x13B7C, offset: 0x13B7C, size: 0x8, addend: 0x0, symName: __ZNSt3__16vectorIfNS_9allocatorIfEEE18__construct_at_endIPfLi0EEEvT_S6_m, symObjAddr: 0x43D0, symBinAddr: 0x100005140, symSize: 0x90 }
  - { offsetInCU: 0x13BEF, offset: 0x13BEF, size: 0x8, addend: 0x0, symName: __ZNSt3__128__exception_guard_exceptionsINS_6vectorIfNS_9allocatorIfEEE16__destroy_vectorEE10__completeB7v160006Ev, symObjAddr: 0x4460, symBinAddr: 0x1000051D0, symSize: 0x20 }
  - { offsetInCU: 0x13C15, offset: 0x13C15, size: 0x8, addend: 0x0, symName: __ZNSt3__128__exception_guard_exceptionsINS_6vectorIfNS_9allocatorIfEEE16__destroy_vectorEED1B7v160006Ev, symObjAddr: 0x4480, symBinAddr: 0x1000051F0, symSize: 0x20 }
  - { offsetInCU: 0x13C3F, offset: 0x13C3F, size: 0x8, addend: 0x0, symName: __ZNKSt3__117__compressed_pairIPfNS_9allocatorIfEEE6secondB7v160006Ev, symObjAddr: 0x44A0, symBinAddr: 0x100005210, symSize: 0x20 }
  - { offsetInCU: 0x13C65, offset: 0x13C65, size: 0x8, addend: 0x0, symName: __ZNKSt3__122__compressed_pair_elemINS_9allocatorIfEELi1ELb1EE5__getB7v160006Ev, symObjAddr: 0x44C0, symBinAddr: 0x100005230, symSize: 0x10 }
  - { offsetInCU: 0x13C8B, offset: 0x13C8B, size: 0x8, addend: 0x0, symName: __ZNSt3__117__compressed_pairIPfNS_9allocatorIfEEEC2B7v160006IDnS3_EEOT_OT0_, symObjAddr: 0x44D0, symBinAddr: 0x100005240, symSize: 0x40 }
  - { offsetInCU: 0x13CE3, offset: 0x13CE3, size: 0x8, addend: 0x0, symName: __ZNSt3__122__compressed_pair_elemIPfLi0ELb0EEC2B7v160006IDnvEEOT_, symObjAddr: 0x4510, symBinAddr: 0x100005280, symSize: 0x20 }
  - { offsetInCU: 0x13D25, offset: 0x13D25, size: 0x8, addend: 0x0, symName: __ZNSt3__122__compressed_pair_elemINS_9allocatorIfEELi1ELb1EEC2B7v160006IS2_vEEOT_, symObjAddr: 0x4530, symBinAddr: 0x1000052A0, symSize: 0x10 }
  - { offsetInCU: 0x13D67, offset: 0x13D67, size: 0x8, addend: 0x0, symName: __ZNSt3__128__exception_guard_exceptionsINS_6vectorIfNS_9allocatorIfEEE16__destroy_vectorEEC1B7v160006ES5_, symObjAddr: 0x4540, symBinAddr: 0x1000052B0, symSize: 0x30 }
  - { offsetInCU: 0x13D9F, offset: 0x13D9F, size: 0x8, addend: 0x0, symName: __ZNSt3__128__exception_guard_exceptionsINS_6vectorIfNS_9allocatorIfEEE16__destroy_vectorEEC2B7v160006ES5_, symObjAddr: 0x4570, symBinAddr: 0x1000052E0, symSize: 0x20 }
  - { offsetInCU: 0x13DD7, offset: 0x13DD7, size: 0x8, addend: 0x0, symName: __ZNSt3__16vectorIfNS_9allocatorIfEEE16__destroy_vectorC2ERS3_, symObjAddr: 0x4590, symBinAddr: 0x100005300, symSize: 0x20 }
  - { offsetInCU: 0x13E10, offset: 0x13E10, size: 0x8, addend: 0x0, symName: __ZNKSt3__16vectorIfNS_9allocatorIfEEE8max_sizeEv, symObjAddr: 0x45B0, symBinAddr: 0x100005320, symSize: 0x60 }
  - { offsetInCU: 0x13E38, offset: 0x13E38, size: 0x8, addend: 0x0, symName: __ZNKSt3__16vectorIfNS_9allocatorIfEEE20__throw_length_errorB7v160006Ev, symObjAddr: 0x4610, symBinAddr: 0x100005380, symSize: 0x20 }
  - { offsetInCU: 0x13E5E, offset: 0x13E5E, size: 0x8, addend: 0x0, symName: __ZNSt3__16vectorIfNS_9allocatorIfEEE7__allocB7v160006Ev, symObjAddr: 0x4670, symBinAddr: 0x1000053E0, symSize: 0x20 }
  - { offsetInCU: 0x13E84, offset: 0x13E84, size: 0x8, addend: 0x0, symName: __ZNSt3__16vectorIfNS_9allocatorIfEEE9__end_capB7v160006Ev, symObjAddr: 0x4690, symBinAddr: 0x100005400, symSize: 0x20 }
  - { offsetInCU: 0x13EAA, offset: 0x13EAA, size: 0x8, addend: 0x0, symName: __ZNKSt3__16vectorIfNS_9allocatorIfEEE14__annotate_newB7v160006Em, symObjAddr: 0x46B0, symBinAddr: 0x100005420, symSize: 0xB0 }
  - { offsetInCU: 0x13EDF, offset: 0x13EDF, size: 0x8, addend: 0x0, symName: __ZNSt3__116allocator_traitsINS_9allocatorIfEEE8max_sizeB7v160006IS2_vEEmRKS2_, symObjAddr: 0x4760, symBinAddr: 0x1000054D0, symSize: 0x20 }
  - { offsetInCU: 0x13F0D, offset: 0x13F0D, size: 0x8, addend: 0x0, symName: __ZNKSt3__19allocatorIfE8max_sizeB7v160006Ev, symObjAddr: 0x4780, symBinAddr: 0x1000054F0, symSize: 0x20 }
  - { offsetInCU: 0x13F33, offset: 0x13F33, size: 0x8, addend: 0x0, symName: __ZNSt3__19allocatorIfE8allocateB7v160006Em, symObjAddr: 0x47A0, symBinAddr: 0x100005510, symSize: 0x50 }
  - { offsetInCU: 0x13F67, offset: 0x13F67, size: 0x8, addend: 0x0, symName: __ZNSt3__117__compressed_pairIPfNS_9allocatorIfEEE6secondB7v160006Ev, symObjAddr: 0x47F0, symBinAddr: 0x100005560, symSize: 0x20 }
  - { offsetInCU: 0x13F8D, offset: 0x13F8D, size: 0x8, addend: 0x0, symName: __ZNSt3__122__compressed_pair_elemINS_9allocatorIfEELi1ELb1EE5__getB7v160006Ev, symObjAddr: 0x4810, symBinAddr: 0x100005580, symSize: 0x10 }
  - { offsetInCU: 0x13FB3, offset: 0x13FB3, size: 0x8, addend: 0x0, symName: __ZNSt3__117__compressed_pairIPfNS_9allocatorIfEEE5firstB7v160006Ev, symObjAddr: 0x4820, symBinAddr: 0x100005590, symSize: 0x20 }
  - { offsetInCU: 0x13FD9, offset: 0x13FD9, size: 0x8, addend: 0x0, symName: __ZNSt3__122__compressed_pair_elemIPfLi0ELb0EE5__getB7v160006Ev, symObjAddr: 0x4840, symBinAddr: 0x1000055B0, symSize: 0x10 }
  - { offsetInCU: 0x13FFF, offset: 0x13FFF, size: 0x8, addend: 0x0, symName: __ZNKSt3__16vectorIfNS_9allocatorIfEEE31__annotate_contiguous_containerB7v160006EPKvS5_S5_S5_, symObjAddr: 0x4850, symBinAddr: 0x1000055C0, symSize: 0x20 }
  - { offsetInCU: 0x14051, offset: 0x14051, size: 0x8, addend: 0x0, symName: __ZNKSt3__16vectorIfNS_9allocatorIfEEE4dataB7v160006Ev, symObjAddr: 0x4870, symBinAddr: 0x1000055E0, symSize: 0x20 }
  - { offsetInCU: 0x14077, offset: 0x14077, size: 0x8, addend: 0x0, symName: __ZNKSt3__16vectorIfNS_9allocatorIfEEE8capacityB7v160006Ev, symObjAddr: 0x4890, symBinAddr: 0x100005600, symSize: 0x30 }
  - { offsetInCU: 0x1409D, offset: 0x1409D, size: 0x8, addend: 0x0, symName: __ZNKSt3__16vectorIfNS_9allocatorIfEEE9__end_capB7v160006Ev, symObjAddr: 0x48D0, symBinAddr: 0x100005640, symSize: 0x20 }
  - { offsetInCU: 0x140C3, offset: 0x140C3, size: 0x8, addend: 0x0, symName: __ZNKSt3__117__compressed_pairIPfNS_9allocatorIfEEE5firstB7v160006Ev, symObjAddr: 0x48F0, symBinAddr: 0x100005660, symSize: 0x20 }
  - { offsetInCU: 0x140E9, offset: 0x140E9, size: 0x8, addend: 0x0, symName: __ZNKSt3__122__compressed_pair_elemIPfLi0ELb0EE5__getB7v160006Ev, symObjAddr: 0x4910, symBinAddr: 0x100005680, symSize: 0x10 }
  - { offsetInCU: 0x14128, offset: 0x14128, size: 0x8, addend: 0x0, symName: __ZNSt3__16vectorIfNS_9allocatorIfEEE21_ConstructTransactionC1B7v160006ERS3_m, symObjAddr: 0x4920, symBinAddr: 0x100005690, symSize: 0x30 }
  - { offsetInCU: 0x14170, offset: 0x14170, size: 0x8, addend: 0x0, symName: __ZNSt3__16vectorIfNS_9allocatorIfEEE21_ConstructTransactionD1B7v160006Ev, symObjAddr: 0x4A50, symBinAddr: 0x1000057C0, symSize: 0x20 }
  - { offsetInCU: 0x1419A, offset: 0x1419A, size: 0x8, addend: 0x0, symName: __ZNSt3__16vectorIfNS_9allocatorIfEEE21_ConstructTransactionC2B7v160006ERS3_m, symObjAddr: 0x4A70, symBinAddr: 0x1000057E0, symSize: 0x40 }
  - { offsetInCU: 0x141E2, offset: 0x141E2, size: 0x8, addend: 0x0, symName: __ZNSt3__129_AllocatorDestroyRangeReverseINS_9allocatorIfEEPfEC1B7v160006ERS2_RS3_S6_, symObjAddr: 0x4B10, symBinAddr: 0x100005880, symSize: 0x40 }
  - { offsetInCU: 0x14239, offset: 0x14239, size: 0x8, addend: 0x0, symName: __ZNSt3__116allocator_traitsINS_9allocatorIfEEE9constructB7v160006IfJRfEvEEvRS2_PT_DpOT0_, symObjAddr: 0x4B50, symBinAddr: 0x1000058C0, symSize: 0x30 }
  - { offsetInCU: 0x14290, offset: 0x14290, size: 0x8, addend: 0x0, symName: __ZNSt3__128__exception_guard_exceptionsINS_29_AllocatorDestroyRangeReverseINS_9allocatorIfEEPfEEE10__completeB7v160006Ev, symObjAddr: 0x4B80, symBinAddr: 0x1000058F0, symSize: 0x20 }
  - { offsetInCU: 0x142B6, offset: 0x142B6, size: 0x8, addend: 0x0, symName: __ZNSt3__128__exception_guard_exceptionsINS_29_AllocatorDestroyRangeReverseINS_9allocatorIfEEPfEEED1B7v160006Ev, symObjAddr: 0x4BA0, symBinAddr: 0x100005910, symSize: 0x20 }
  - { offsetInCU: 0x142E0, offset: 0x142E0, size: 0x8, addend: 0x0, symName: __ZNSt3__128__exception_guard_exceptionsINS_29_AllocatorDestroyRangeReverseINS_9allocatorIfEEPfEEEC1B7v160006ES5_, symObjAddr: 0x4BC0, symBinAddr: 0x100005930, symSize: 0x40 }
  - { offsetInCU: 0x14318, offset: 0x14318, size: 0x8, addend: 0x0, symName: __ZNSt3__128__exception_guard_exceptionsINS_29_AllocatorDestroyRangeReverseINS_9allocatorIfEEPfEEEC2B7v160006ES5_, symObjAddr: 0x4C00, symBinAddr: 0x100005970, symSize: 0x30 }
  - { offsetInCU: 0x14350, offset: 0x14350, size: 0x8, addend: 0x0, symName: __ZNSt3__129_AllocatorDestroyRangeReverseINS_9allocatorIfEEPfEC2B7v160006ERS2_RS3_S6_, symObjAddr: 0x4C30, symBinAddr: 0x1000059A0, symSize: 0x40 }
  - { offsetInCU: 0x143A7, offset: 0x143A7, size: 0x8, addend: 0x0, symName: __ZNSt3__19allocatorIfE9constructB7v160006IfJRfEEEvPT_DpOT0_, symObjAddr: 0x4C70, symBinAddr: 0x1000059E0, symSize: 0x30 }
  - { offsetInCU: 0x143FD, offset: 0x143FD, size: 0x8, addend: 0x0, symName: __ZNSt3__128__exception_guard_exceptionsINS_29_AllocatorDestroyRangeReverseINS_9allocatorIfEEPfEEED2B7v160006Ev, symObjAddr: 0x4CA0, symBinAddr: 0x100005A10, symSize: 0x40 }
  - { offsetInCU: 0x14427, offset: 0x14427, size: 0x8, addend: 0x0, symName: __ZNKSt3__129_AllocatorDestroyRangeReverseINS_9allocatorIfEEPfEclB7v160006Ev, symObjAddr: 0x4CE0, symBinAddr: 0x100005A50, symSize: 0x60 }
  - { offsetInCU: 0x1444D, offset: 0x1444D, size: 0x8, addend: 0x0, symName: __ZNSt3__116reverse_iteratorIPfEC1B7v160006ES1_, symObjAddr: 0x4DB0, symBinAddr: 0x100005B20, symSize: 0x30 }
  - { offsetInCU: 0x14485, offset: 0x14485, size: 0x8, addend: 0x0, symName: __ZNSt3__116allocator_traitsINS_9allocatorIfEEE7destroyB7v160006IfvEEvRS2_PT_, symObjAddr: 0x4E20, symBinAddr: 0x100005B90, symSize: 0x30 }
  - { offsetInCU: 0x144C2, offset: 0x144C2, size: 0x8, addend: 0x0, symName: __ZNSt3__116reverse_iteratorIPfEppB7v160006Ev, symObjAddr: 0x4E70, symBinAddr: 0x100005BE0, symSize: 0x20 }
  - { offsetInCU: 0x144E8, offset: 0x144E8, size: 0x8, addend: 0x0, symName: __ZNKSt3__116reverse_iteratorIPfE4baseB7v160006Ev, symObjAddr: 0x4E90, symBinAddr: 0x100005C00, symSize: 0x20 }
  - { offsetInCU: 0x1450E, offset: 0x1450E, size: 0x8, addend: 0x0, symName: __ZNSt3__19allocatorIfE7destroyB7v160006EPf, symObjAddr: 0x4EB0, symBinAddr: 0x100005C20, symSize: 0x10 }
  - { offsetInCU: 0x14547, offset: 0x14547, size: 0x8, addend: 0x0, symName: __ZNSt3__119__to_address_helperINS_16reverse_iteratorIPfEEvE6__callB7v160006ERKS3_, symObjAddr: 0x4EC0, symBinAddr: 0x100005C30, symSize: 0x40 }
  - { offsetInCU: 0x1456A, offset: 0x1456A, size: 0x8, addend: 0x0, symName: __ZNKSt3__116reverse_iteratorIPfEptB7v160006Ev, symObjAddr: 0x4F00, symBinAddr: 0x100005C70, symSize: 0x20 }
  - { offsetInCU: 0x14590, offset: 0x14590, size: 0x8, addend: 0x0, symName: __ZNKSt3__116reverse_iteratorIPfEdeB7v160006Ev, symObjAddr: 0x4F20, symBinAddr: 0x100005C90, symSize: 0x30 }
  - { offsetInCU: 0x145C4, offset: 0x145C4, size: 0x8, addend: 0x0, symName: __ZNSt3__116reverse_iteratorIPfEC2B7v160006ES1_, symObjAddr: 0x4F50, symBinAddr: 0x100005CC0, symSize: 0x30 }
  - { offsetInCU: 0x145FC, offset: 0x145FC, size: 0x8, addend: 0x0, symName: __ZNSt3__16vectorIfNS_9allocatorIfEEE21_ConstructTransactionD2B7v160006Ev, symObjAddr: 0x4F80, symBinAddr: 0x100005CF0, symSize: 0x20 }
  - { offsetInCU: 0x14626, offset: 0x14626, size: 0x8, addend: 0x0, symName: __ZNSt3__128__exception_guard_exceptionsINS_6vectorIfNS_9allocatorIfEEE16__destroy_vectorEED2B7v160006Ev, symObjAddr: 0x4FA0, symBinAddr: 0x100005D10, symSize: 0x40 }
  - { offsetInCU: 0x14650, offset: 0x14650, size: 0x8, addend: 0x0, symName: __ZNSt3__16vectorIfNS_9allocatorIfEEE16__destroy_vectorclB7v160006Ev, symObjAddr: 0x4FE0, symBinAddr: 0x100005D50, symSize: 0x90 }
  - { offsetInCU: 0x14676, offset: 0x14676, size: 0x8, addend: 0x0, symName: __ZNKSt3__16vectorIfNS_9allocatorIfEEE17__annotate_deleteB7v160006Ev, symObjAddr: 0x5070, symBinAddr: 0x100005DE0, symSize: 0xB0 }
  - { offsetInCU: 0x1469C, offset: 0x1469C, size: 0x8, addend: 0x0, symName: __ZNSt3__16vectorIfNS_9allocatorIfEEE7__clearB7v160006Ev, symObjAddr: 0x5130, symBinAddr: 0x100005EA0, symSize: 0x20 }
  - { offsetInCU: 0x146C2, offset: 0x146C2, size: 0x8, addend: 0x0, symName: __ZNSt3__116allocator_traitsINS_9allocatorIfEEE10deallocateB7v160006ERS2_Pfm, symObjAddr: 0x5150, symBinAddr: 0x100005EC0, symSize: 0x30 }
  - { offsetInCU: 0x14704, offset: 0x14704, size: 0x8, addend: 0x0, symName: __ZNSt3__16vectorIfNS_9allocatorIfEEE22__base_destruct_at_endB7v160006EPf, symObjAddr: 0x5180, symBinAddr: 0x100005EF0, symSize: 0x80 }
  - { offsetInCU: 0x14748, offset: 0x14748, size: 0x8, addend: 0x0, symName: __ZNSt3__19allocatorIfE10deallocateB7v160006EPfm, symObjAddr: 0x5200, symBinAddr: 0x100005F70, symSize: 0x40 }
  - { offsetInCU: 0x1478A, offset: 0x1478A, size: 0x8, addend: 0x0, symName: __ZNSt3__128__exception_guard_exceptionsINS_29_AllocatorDestroyRangeReverseINS_9allocatorINS_4pairINS_6vectorIfNS2_IfEEEENS_12basic_stringIcNS_11char_traitsIcEENS2_IcEEEEEEEEPSC_EEED2B7v160006Ev, symObjAddr: 0x5240, symBinAddr: 0x100005FB0, symSize: 0x40 }
  - { offsetInCU: 0x147B4, offset: 0x147B4, size: 0x8, addend: 0x0, symName: __ZNKSt3__129_AllocatorDestroyRangeReverseINS_9allocatorINS_4pairINS_6vectorIfNS1_IfEEEENS_12basic_stringIcNS_11char_traitsIcEENS1_IcEEEEEEEEPSB_EclB7v160006Ev, symObjAddr: 0x5280, symBinAddr: 0x100005FF0, symSize: 0x60 }
  - { offsetInCU: 0x147DA, offset: 0x147DA, size: 0x8, addend: 0x0, symName: __ZNSt3__116reverse_iteratorIPNS_4pairINS_6vectorIfNS_9allocatorIfEEEENS_12basic_stringIcNS_11char_traitsIcEENS3_IcEEEEEEEC1B7v160006ESC_, symObjAddr: 0x5350, symBinAddr: 0x1000060C0, symSize: 0x30 }
  - { offsetInCU: 0x14812, offset: 0x14812, size: 0x8, addend: 0x0, symName: __ZNSt3__116allocator_traitsINS_9allocatorINS_4pairINS_6vectorIfNS1_IfEEEENS_12basic_stringIcNS_11char_traitsIcEENS1_IcEEEEEEEEE7destroyB7v160006ISB_vEEvRSC_PT_, symObjAddr: 0x53C0, symBinAddr: 0x100006130, symSize: 0x30 }
  - { offsetInCU: 0x1484F, offset: 0x1484F, size: 0x8, addend: 0x0, symName: __ZNSt3__116reverse_iteratorIPNS_4pairINS_6vectorIfNS_9allocatorIfEEEENS_12basic_stringIcNS_11char_traitsIcEENS3_IcEEEEEEEppB7v160006Ev, symObjAddr: 0x5410, symBinAddr: 0x100006180, symSize: 0x20 }
  - { offsetInCU: 0x14875, offset: 0x14875, size: 0x8, addend: 0x0, symName: __ZNKSt3__116reverse_iteratorIPNS_4pairINS_6vectorIfNS_9allocatorIfEEEENS_12basic_stringIcNS_11char_traitsIcEENS3_IcEEEEEEE4baseB7v160006Ev, symObjAddr: 0x5430, symBinAddr: 0x1000061A0, symSize: 0x20 }
  - { offsetInCU: 0x1489B, offset: 0x1489B, size: 0x8, addend: 0x0, symName: __ZNSt3__19allocatorINS_4pairINS_6vectorIfNS0_IfEEEENS_12basic_stringIcNS_11char_traitsIcEENS0_IcEEEEEEE7destroyB7v160006EPSA_, symObjAddr: 0x5450, symBinAddr: 0x1000061C0, symSize: 0x20 }
  - { offsetInCU: 0x148D4, offset: 0x148D4, size: 0x8, addend: 0x0, symName: __ZNSt3__119__to_address_helperINS_16reverse_iteratorIPNS_4pairINS_6vectorIfNS_9allocatorIfEEEENS_12basic_stringIcNS_11char_traitsIcEENS4_IcEEEEEEEEvE6__callB7v160006ERKSE_, symObjAddr: 0x5470, symBinAddr: 0x1000061E0, symSize: 0x40 }
  - { offsetInCU: 0x148F7, offset: 0x148F7, size: 0x8, addend: 0x0, symName: __ZNKSt3__116reverse_iteratorIPNS_4pairINS_6vectorIfNS_9allocatorIfEEEENS_12basic_stringIcNS_11char_traitsIcEENS3_IcEEEEEEEptB7v160006Ev, symObjAddr: 0x54B0, symBinAddr: 0x100006220, symSize: 0x20 }
  - { offsetInCU: 0x1491D, offset: 0x1491D, size: 0x8, addend: 0x0, symName: __ZNKSt3__116reverse_iteratorIPNS_4pairINS_6vectorIfNS_9allocatorIfEEEENS_12basic_stringIcNS_11char_traitsIcEENS3_IcEEEEEEEdeB7v160006Ev, symObjAddr: 0x54D0, symBinAddr: 0x100006240, symSize: 0x30 }
  - { offsetInCU: 0x14951, offset: 0x14951, size: 0x8, addend: 0x0, symName: __ZNSt3__116reverse_iteratorIPNS_4pairINS_6vectorIfNS_9allocatorIfEEEENS_12basic_stringIcNS_11char_traitsIcEENS3_IcEEEEEEEC2B7v160006ESC_, symObjAddr: 0x5500, symBinAddr: 0x100006270, symSize: 0x30 }
  - { offsetInCU: 0x14989, offset: 0x14989, size: 0x8, addend: 0x0, symName: __ZNSt3__16vectorINS_4pairINS0_IfNS_9allocatorIfEEEENS_12basic_stringIcNS_11char_traitsIcEENS2_IcEEEEEENS2_ISA_EEE21_ConstructTransactionD2B7v160006Ev, symObjAddr: 0x5530, symBinAddr: 0x1000062A0, symSize: 0x20 }
  - { offsetInCU: 0x149B3, offset: 0x149B3, size: 0x8, addend: 0x0, symName: __ZNSt3__128__exception_guard_exceptionsINS_6vectorINS_4pairINS1_IfNS_9allocatorIfEEEENS_12basic_stringIcNS_11char_traitsIcEENS3_IcEEEEEENS3_ISB_EEE16__destroy_vectorEED2B7v160006Ev, symObjAddr: 0x5550, symBinAddr: 0x1000062C0, symSize: 0x40 }
  - { offsetInCU: 0x149DD, offset: 0x149DD, size: 0x8, addend: 0x0, symName: __ZNSt3__16vectorINS_4pairINS0_IfNS_9allocatorIfEEEENS_12basic_stringIcNS_11char_traitsIcEENS2_IcEEEEEENS2_ISA_EEE16__destroy_vectorclB7v160006Ev, symObjAddr: 0x5590, symBinAddr: 0x100006300, symSize: 0x90 }
  - { offsetInCU: 0x14A03, offset: 0x14A03, size: 0x8, addend: 0x0, symName: __ZNKSt3__16vectorINS_4pairINS0_IfNS_9allocatorIfEEEENS_12basic_stringIcNS_11char_traitsIcEENS2_IcEEEEEENS2_ISA_EEE17__annotate_deleteB7v160006Ev, symObjAddr: 0x5620, symBinAddr: 0x100006390, symSize: 0xB0 }
  - { offsetInCU: 0x14A29, offset: 0x14A29, size: 0x8, addend: 0x0, symName: __ZNSt3__16vectorINS_4pairINS0_IfNS_9allocatorIfEEEENS_12basic_stringIcNS_11char_traitsIcEENS2_IcEEEEEENS2_ISA_EEE7__clearB7v160006Ev, symObjAddr: 0x56E0, symBinAddr: 0x100006450, symSize: 0x20 }
  - { offsetInCU: 0x14A4F, offset: 0x14A4F, size: 0x8, addend: 0x0, symName: __ZNSt3__116allocator_traitsINS_9allocatorINS_4pairINS_6vectorIfNS1_IfEEEENS_12basic_stringIcNS_11char_traitsIcEENS1_IcEEEEEEEEE10deallocateB7v160006ERSC_PSB_m, symObjAddr: 0x5700, symBinAddr: 0x100006470, symSize: 0x30 }
  - { offsetInCU: 0x14A91, offset: 0x14A91, size: 0x8, addend: 0x0, symName: __ZNSt3__16vectorINS_4pairINS0_IfNS_9allocatorIfEEEENS_12basic_stringIcNS_11char_traitsIcEENS2_IcEEEEEENS2_ISA_EEE22__base_destruct_at_endB7v160006EPSA_, symObjAddr: 0x5730, symBinAddr: 0x1000064A0, symSize: 0x80 }
  - { offsetInCU: 0x14AD5, offset: 0x14AD5, size: 0x8, addend: 0x0, symName: __ZNSt3__19allocatorINS_4pairINS_6vectorIfNS0_IfEEEENS_12basic_stringIcNS_11char_traitsIcEENS0_IcEEEEEEE10deallocateB7v160006EPSA_m, symObjAddr: 0x57B0, symBinAddr: 0x100006520, symSize: 0x50 }
  - { offsetInCU: 0x14B17, offset: 0x14B17, size: 0x8, addend: 0x0, symName: __ZNSt3__114basic_ofstreamIcNS_11char_traitsIcEEED2Ev, symObjAddr: 0x5800, symBinAddr: 0x100006570, symSize: 0x60 }
  - { offsetInCU: 0x14B51, offset: 0x14B51, size: 0x8, addend: 0x0, symName: __ZTv0_n24_NSt3__114basic_ofstreamIcNS_11char_traitsIcEEED1Ev, symObjAddr: 0x5860, symBinAddr: 0x1000065D0, symSize: 0x20 }
  - { offsetInCU: 0x14B68, offset: 0x14B68, size: 0x8, addend: 0x0, symName: __ZNSt3__119basic_istringstreamIcNS_11char_traitsIcEENS_9allocatorIcEEED2Ev, symObjAddr: 0x5880, symBinAddr: 0x1000065F0, symSize: 0x60 }
  - { offsetInCU: 0x14BA2, offset: 0x14BA2, size: 0x8, addend: 0x0, symName: __ZTv0_n24_NSt3__119basic_istringstreamIcNS_11char_traitsIcEENS_9allocatorIcEEED1Ev, symObjAddr: 0x58E0, symBinAddr: 0x100006650, symSize: 0x20 }
  - { offsetInCU: 0x14BBE, offset: 0x14BBE, size: 0x8, addend: 0x0, symName: __ZNSt3__115basic_stringbufIcNS_11char_traitsIcEENS_9allocatorIcEEED1Ev, symObjAddr: 0x5900, symBinAddr: 0x100006670, symSize: 0x20 }
  - { offsetInCU: 0x14BEB, offset: 0x14BEB, size: 0x8, addend: 0x0, symName: __ZNSt3__115basic_stringbufIcNS_11char_traitsIcEENS_9allocatorIcEEED2Ev, symObjAddr: 0x5920, symBinAddr: 0x100006690, symSize: 0x40 }
  - { offsetInCU: 0x14C1D, offset: 0x14C1D, size: 0x8, addend: 0x0, symName: __ZNSt3__14pairINS_6vectorIfNS_9allocatorIfEEEENS_12basic_stringIcNS_11char_traitsIcEENS2_IcEEEEEC1B7v160006IRS4_RS9_LPv0EEEOT_OT0_, symObjAddr: 0x5960, symBinAddr: 0x1000066D0, symSize: 0x30 }
  - { offsetInCU: 0x14C7B, offset: 0x14C7B, size: 0x8, addend: 0x0, symName: __ZNSt3__14pairINS_6vectorIfNS_9allocatorIfEEEENS_12basic_stringIcNS_11char_traitsIcEENS2_IcEEEEEC2B7v160006IRS4_RS9_LPv0EEEOT_OT0_, symObjAddr: 0x5990, symBinAddr: 0x100006700, symSize: 0x60 }
  - { offsetInCU: 0x14CD9, offset: 0x14CD9, size: 0x8, addend: 0x0, symName: __ZNSt3__14pairINS_6vectorIfNS_9allocatorIfEEEENS_12basic_stringIcNS_11char_traitsIcEENS2_IcEEEEED2Ev, symObjAddr: 0x59F0, symBinAddr: 0x100006760, symSize: 0x30 }
  - { offsetInCU: 0x14D05, offset: 0x14D05, size: 0x8, addend: 0x0, symName: __ZNSt3__118basic_stringstreamIcNS_11char_traitsIcEENS_9allocatorIcEEED2Ev, symObjAddr: 0x5A20, symBinAddr: 0x100006790, symSize: 0x60 }
  - { offsetInCU: 0x14D3F, offset: 0x14D3F, size: 0x8, addend: 0x0, symName: __ZThn16_NSt3__118basic_stringstreamIcNS_11char_traitsIcEENS_9allocatorIcEEED1Ev, symObjAddr: 0x5A80, symBinAddr: 0x1000067F0, symSize: 0x20 }
  - { offsetInCU: 0x14D56, offset: 0x14D56, size: 0x8, addend: 0x0, symName: __ZTv0_n24_NSt3__118basic_stringstreamIcNS_11char_traitsIcEENS_9allocatorIcEEED1Ev, symObjAddr: 0x5AA0, symBinAddr: 0x100006810, symSize: 0x20 }
  - { offsetInCU: 0x14D6D, offset: 0x14D6D, size: 0x8, addend: 0x0, symName: __ZNSt3__14pairINS_6vectorINS1_INS0_INS1_IfNS_9allocatorIfEEEENS_12basic_stringIcNS_11char_traitsIcEENS2_IcEEEEEENS2_ISA_EEEENS2_ISC_EEEESC_ED2Ev, symObjAddr: 0x5AC0, symBinAddr: 0x100006830, symSize: 0x30 }
  - { offsetInCU: 0x14D99, offset: 0x14D99, size: 0x8, addend: 0x0, symName: __ZNSt3__114basic_ifstreamIcNS_11char_traitsIcEEED2Ev, symObjAddr: 0x5AF0, symBinAddr: 0x100006860, symSize: 0x60 }
  - { offsetInCU: 0x14DD3, offset: 0x14DD3, size: 0x8, addend: 0x0, symName: __ZTv0_n24_NSt3__114basic_ifstreamIcNS_11char_traitsIcEEED1Ev, symObjAddr: 0x5B50, symBinAddr: 0x1000068C0, symSize: 0x20 }
  - { offsetInCU: 0x14DEA, offset: 0x14DEA, size: 0x8, addend: 0x0, symName: __ZNSt3__112basic_stringIcNS_11char_traitsIcEENS_9allocatorIcEEEC2B7v160006Ev, symObjAddr: 0x5B70, symBinAddr: 0x1000068E0, symSize: 0x50 }
  - { offsetInCU: 0x14E19, offset: 0x14E19, size: 0x8, addend: 0x0, symName: __ZNSt3__117__compressed_pairINS_12basic_stringIcNS_11char_traitsIcEENS_9allocatorIcEEE5__repES5_EC1B7v160006INS_18__default_init_tagESA_EEOT_OT0_, symObjAddr: 0x5BC0, symBinAddr: 0x100006930, symSize: 0x30 }
  - { offsetInCU: 0x14E71, offset: 0x14E71, size: 0x8, addend: 0x0, symName: __ZNSt3__112basic_stringIcNS_11char_traitsIcEENS_9allocatorIcEEE14__default_initB7v160006Ev, symObjAddr: 0x5C00, symBinAddr: 0x100006970, symSize: 0x50 }
  - { offsetInCU: 0x14E97, offset: 0x14E97, size: 0x8, addend: 0x0, symName: __ZNSt3__117__compressed_pairINS_12basic_stringIcNS_11char_traitsIcEENS_9allocatorIcEEE5__repES5_EC2B7v160006INS_18__default_init_tagESA_EEOT_OT0_, symObjAddr: 0x5C50, symBinAddr: 0x1000069C0, symSize: 0x30 }
  - { offsetInCU: 0x14EEF, offset: 0x14EEF, size: 0x8, addend: 0x0, symName: __ZNSt3__122__compressed_pair_elemINS_12basic_stringIcNS_11char_traitsIcEENS_9allocatorIcEEE5__repELi0ELb0EEC2B7v160006ENS_18__default_init_tagE, symObjAddr: 0x5C80, symBinAddr: 0x1000069F0, symSize: 0x10 }
  - { offsetInCU: 0x14F23, offset: 0x14F23, size: 0x8, addend: 0x0, symName: __ZNSt3__122__compressed_pair_elemINS_9allocatorIcEELi1ELb1EEC2B7v160006ENS_18__default_init_tagE, symObjAddr: 0x5C90, symBinAddr: 0x100006A00, symSize: 0x20 }
  - { offsetInCU: 0x14F57, offset: 0x14F57, size: 0x8, addend: 0x0, symName: __ZNSt3__19allocatorIcEC2B7v160006Ev, symObjAddr: 0x5CB0, symBinAddr: 0x100006A20, symSize: 0x20 }
  - { offsetInCU: 0x14F81, offset: 0x14F81, size: 0x8, addend: 0x0, symName: __ZNSt3__116__non_trivial_ifILb1ENS_9allocatorIcEEEC2B7v160006Ev, symObjAddr: 0x5CD0, symBinAddr: 0x100006A40, symSize: 0x10 }
  - { offsetInCU: 0x14FAB, offset: 0x14FAB, size: 0x8, addend: 0x0, symName: __ZNSt3__117__compressed_pairINS_12basic_stringIcNS_11char_traitsIcEENS_9allocatorIcEEE5__repES5_E5firstB7v160006Ev, symObjAddr: 0x5CE0, symBinAddr: 0x100006A50, symSize: 0x20 }
  - { offsetInCU: 0x14FD1, offset: 0x14FD1, size: 0x8, addend: 0x0, symName: __ZNSt3__122__compressed_pair_elemINS_12basic_stringIcNS_11char_traitsIcEENS_9allocatorIcEEE5__repELi0ELb0EE5__getB7v160006Ev, symObjAddr: 0x5D00, symBinAddr: 0x100006A70, symSize: 0x10 }
  - { offsetInCU: 0x14FF7, offset: 0x14FF7, size: 0x8, addend: 0x0, symName: __ZNSt3__16vectorIfNS_9allocatorIfEEEC2B7v160006Ev, symObjAddr: 0x5D10, symBinAddr: 0x100006A80, symSize: 0x60 }
  - { offsetInCU: 0x15021, offset: 0x15021, size: 0x8, addend: 0x0, symName: __ZNSt3__117__compressed_pairIPfNS_9allocatorIfEEEC1B7v160006IDnNS_18__default_init_tagEEEOT_OT0_, symObjAddr: 0x5D70, symBinAddr: 0x100006AE0, symSize: 0x30 }
  - { offsetInCU: 0x15079, offset: 0x15079, size: 0x8, addend: 0x0, symName: __ZNSt3__117__compressed_pairIPfNS_9allocatorIfEEEC2B7v160006IDnNS_18__default_init_tagEEEOT_OT0_, symObjAddr: 0x5DA0, symBinAddr: 0x100006B10, symSize: 0x40 }
  - { offsetInCU: 0x150D1, offset: 0x150D1, size: 0x8, addend: 0x0, symName: __ZNSt3__122__compressed_pair_elemINS_9allocatorIfEELi1ELb1EEC2B7v160006ENS_18__default_init_tagE, symObjAddr: 0x5DE0, symBinAddr: 0x100006B50, symSize: 0x20 }
  - { offsetInCU: 0x15105, offset: 0x15105, size: 0x8, addend: 0x0, symName: __ZNSt3__19allocatorIfEC2B7v160006Ev, symObjAddr: 0x5E00, symBinAddr: 0x100006B70, symSize: 0x20 }
  - { offsetInCU: 0x1512F, offset: 0x1512F, size: 0x8, addend: 0x0, symName: __ZNSt3__116__non_trivial_ifILb1ENS_9allocatorIfEEEC2B7v160006Ev, symObjAddr: 0x5E20, symBinAddr: 0x100006B90, symSize: 0x10 }
  - { offsetInCU: 0x15159, offset: 0x15159, size: 0x8, addend: 0x0, symName: __ZNSt3__16vectorIfNS_9allocatorIfEEED2B7v160006Ev, symObjAddr: 0x5E30, symBinAddr: 0x100006BA0, symSize: 0x40 }
  - { offsetInCU: 0x15183, offset: 0x15183, size: 0x8, addend: 0x0, symName: __ZNSt3__16vectorIfNS_9allocatorIfEEE22__construct_one_at_endB7v160006IJRKfEEEvDpOT_, symObjAddr: 0x5E70, symBinAddr: 0x100006BE0, symSize: 0x90 }
  - { offsetInCU: 0x151D2, offset: 0x151D2, size: 0x8, addend: 0x0, symName: __ZNSt3__16vectorIfNS_9allocatorIfEEE21__push_back_slow_pathIRKfEEvOT_, symObjAddr: 0x5F00, symBinAddr: 0x100006C70, symSize: 0xD0 }
  - { offsetInCU: 0x15230, offset: 0x15230, size: 0x8, addend: 0x0, symName: __ZNSt3__116allocator_traitsINS_9allocatorIfEEE9constructB7v160006IfJRKfEvEEvRS2_PT_DpOT0_, symObjAddr: 0x5FD0, symBinAddr: 0x100006D40, symSize: 0x30 }
  - { offsetInCU: 0x15287, offset: 0x15287, size: 0x8, addend: 0x0, symName: __ZNSt3__19allocatorIfE9constructB7v160006IfJRKfEEEvPT_DpOT0_, symObjAddr: 0x6000, symBinAddr: 0x100006D70, symSize: 0x30 }
  - { offsetInCU: 0x152DD, offset: 0x152DD, size: 0x8, addend: 0x0, symName: __ZNKSt3__16vectorIfNS_9allocatorIfEEE11__recommendB7v160006Em, symObjAddr: 0x6030, symBinAddr: 0x100006DA0, symSize: 0xA0 }
  - { offsetInCU: 0x15332, offset: 0x15332, size: 0x8, addend: 0x0, symName: __ZNSt3__114__split_bufferIfRNS_9allocatorIfEEEC1EmmS3_, symObjAddr: 0x60D0, symBinAddr: 0x100006E40, symSize: 0x40 }
  - { offsetInCU: 0x15388, offset: 0x15388, size: 0x8, addend: 0x0, symName: __ZNSt3__114__split_bufferIfRNS_9allocatorIfEEED1Ev, symObjAddr: 0x6240, symBinAddr: 0x100006FB0, symSize: 0x20 }
  - { offsetInCU: 0x153B4, offset: 0x153B4, size: 0x8, addend: 0x0, symName: __ZNSt3__114__split_bufferIfRNS_9allocatorIfEEEC2EmmS3_, symObjAddr: 0x62E0, symBinAddr: 0x100007050, symSize: 0xD0 }
  - { offsetInCU: 0x15428, offset: 0x15428, size: 0x8, addend: 0x0, symName: __ZNSt3__117__compressed_pairIPfRNS_9allocatorIfEEEC1B7v160006IDnS4_EEOT_OT0_, symObjAddr: 0x63B0, symBinAddr: 0x100007120, symSize: 0x30 }
  - { offsetInCU: 0x15480, offset: 0x15480, size: 0x8, addend: 0x0, symName: __ZNSt3__114__split_bufferIfRNS_9allocatorIfEEE7__allocB7v160006Ev, symObjAddr: 0x63E0, symBinAddr: 0x100007150, symSize: 0x20 }
  - { offsetInCU: 0x154A6, offset: 0x154A6, size: 0x8, addend: 0x0, symName: __ZNSt3__114__split_bufferIfRNS_9allocatorIfEEE9__end_capB7v160006Ev, symObjAddr: 0x6400, symBinAddr: 0x100007170, symSize: 0x20 }
  - { offsetInCU: 0x154CC, offset: 0x154CC, size: 0x8, addend: 0x0, symName: __ZNSt3__117__compressed_pairIPfRNS_9allocatorIfEEEC2B7v160006IDnS4_EEOT_OT0_, symObjAddr: 0x6420, symBinAddr: 0x100007190, symSize: 0x40 }
  - { offsetInCU: 0x15524, offset: 0x15524, size: 0x8, addend: 0x0, symName: __ZNSt3__122__compressed_pair_elemIRNS_9allocatorIfEELi1ELb0EEC2B7v160006IS3_vEEOT_, symObjAddr: 0x6460, symBinAddr: 0x1000071D0, symSize: 0x20 }
  - { offsetInCU: 0x15566, offset: 0x15566, size: 0x8, addend: 0x0, symName: __ZNSt3__117__compressed_pairIPfRNS_9allocatorIfEEE6secondB7v160006Ev, symObjAddr: 0x6480, symBinAddr: 0x1000071F0, symSize: 0x20 }
  - { offsetInCU: 0x1558C, offset: 0x1558C, size: 0x8, addend: 0x0, symName: __ZNSt3__122__compressed_pair_elemIRNS_9allocatorIfEELi1ELb0EE5__getB7v160006Ev, symObjAddr: 0x64A0, symBinAddr: 0x100007210, symSize: 0x20 }
  - { offsetInCU: 0x155B2, offset: 0x155B2, size: 0x8, addend: 0x0, symName: __ZNSt3__117__compressed_pairIPfRNS_9allocatorIfEEE5firstB7v160006Ev, symObjAddr: 0x64C0, symBinAddr: 0x100007230, symSize: 0x20 }
  - { offsetInCU: 0x155FB, offset: 0x155FB, size: 0x8, addend: 0x0, symName: __ZNKSt3__111__move_loopINS_17_ClassicAlgPolicyEEclB7v160006INS_16reverse_iteratorIPfEES6_S6_EENS_4pairIT_T1_EES8_T0_S9_, symObjAddr: 0x69E0, symBinAddr: 0x100007750, symSize: 0xA0 }
  - { offsetInCU: 0x1566B, offset: 0x1566B, size: 0x8, addend: 0x0, symName: __ZNSt3__18_IterOpsINS_17_ClassicAlgPolicyEE11__iter_moveB7v160006IRNS_16reverse_iteratorIPfEEEENS_9enable_ifIXsr12is_referenceIDTdeclsr3stdE7declvalIRT_EEEEE5valueEDTclsr3stdE4movedeclsr3stdE7declvalISA_EEEEE4typeEOS9_, symObjAddr: 0x6BC0, symBinAddr: 0x100007930, symSize: 0x20 }
  - { offsetInCU: 0x15697, offset: 0x15697, size: 0x8, addend: 0x0, symName: __ZNSt3__18_IterOpsINS_17_ClassicAlgPolicyEE25__validate_iter_referenceB7v160006IRNS_16reverse_iteratorIPfEEEEvv, symObjAddr: 0x6BE0, symBinAddr: 0x100007950, symSize: 0x10 }
  - { offsetInCU: 0x156B5, offset: 0x156B5, size: 0x8, addend: 0x0, symName: __ZNSt3__118__unwrap_iter_implINS_16reverse_iteratorIPfEELb0EE8__unwrapB7v160006ES3_, symObjAddr: 0x6BF0, symBinAddr: 0x100007960, symSize: 0x20 }
  - { offsetInCU: 0x156DD, offset: 0x156DD, size: 0x8, addend: 0x0, symName: __ZNSt3__14pairINS_16reverse_iteratorIPfEES3_EC1B7v160006IS3_S3_LPv0EEEOT_OT0_, symObjAddr: 0x6C10, symBinAddr: 0x100007980, symSize: 0x30 }
  - { offsetInCU: 0x1573B, offset: 0x1573B, size: 0x8, addend: 0x0, symName: __ZNSt3__14pairINS_16reverse_iteratorIPfEES3_EC2B7v160006IS3_S3_LPv0EEEOT_OT0_, symObjAddr: 0x6C40, symBinAddr: 0x1000079B0, symSize: 0x40 }
  - { offsetInCU: 0x15799, offset: 0x15799, size: 0x8, addend: 0x0, symName: __ZNSt3__118__unwrap_iter_implINS_16reverse_iteratorIPfEELb0EE8__rewrapB7v160006ES3_S3_, symObjAddr: 0x6C80, symBinAddr: 0x1000079F0, symSize: 0x30 }
  - { offsetInCU: 0x157C6, offset: 0x157C6, size: 0x8, addend: 0x0, symName: __ZNSt3__114__split_bufferIfRNS_9allocatorIfEEED2Ev, symObjAddr: 0x6CB0, symBinAddr: 0x100007A20, symSize: 0x70 }
  - { offsetInCU: 0x157F2, offset: 0x157F2, size: 0x8, addend: 0x0, symName: __ZNSt3__114__split_bufferIfRNS_9allocatorIfEEE5clearB7v160006Ev, symObjAddr: 0x6D20, symBinAddr: 0x100007A90, symSize: 0x20 }
  - { offsetInCU: 0x15818, offset: 0x15818, size: 0x8, addend: 0x0, symName: __ZNKSt3__114__split_bufferIfRNS_9allocatorIfEEE8capacityB7v160006Ev, symObjAddr: 0x6D40, symBinAddr: 0x100007AB0, symSize: 0x30 }
  - { offsetInCU: 0x1583E, offset: 0x1583E, size: 0x8, addend: 0x0, symName: __ZNSt3__114__split_bufferIfRNS_9allocatorIfEEE17__destruct_at_endB7v160006EPf, symObjAddr: 0x6D70, symBinAddr: 0x100007AE0, symSize: 0x30 }
  - { offsetInCU: 0x15872, offset: 0x15872, size: 0x8, addend: 0x0, symName: __ZNSt3__114__split_bufferIfRNS_9allocatorIfEEE17__destruct_at_endB7v160006EPfNS_17integral_constantIbLb0EEE, symObjAddr: 0x6DA0, symBinAddr: 0x100007B10, symSize: 0x80 }
  - { offsetInCU: 0x158B2, offset: 0x158B2, size: 0x8, addend: 0x0, symName: __ZNKSt3__114__split_bufferIfRNS_9allocatorIfEEE9__end_capB7v160006Ev, symObjAddr: 0x6E20, symBinAddr: 0x100007B90, symSize: 0x20 }
  - { offsetInCU: 0x158D8, offset: 0x158D8, size: 0x8, addend: 0x0, symName: __ZNKSt3__117__compressed_pairIPfRNS_9allocatorIfEEE5firstB7v160006Ev, symObjAddr: 0x6E40, symBinAddr: 0x100007BB0, symSize: 0x20 }
  - { offsetInCU: 0x158FE, offset: 0x158FE, size: 0x8, addend: 0x0, symName: __ZNSt3__16vectorINS_4pairINS0_IfNS_9allocatorIfEEEENS_12basic_stringIcNS_11char_traitsIcEENS2_IcEEEEEENS2_ISA_EEEC2Em, symObjAddr: 0x6E60, symBinAddr: 0x100007BD0, symSize: 0xE0 }
  - { offsetInCU: 0x1594E, offset: 0x1594E, size: 0x8, addend: 0x0, symName: __ZNSt3__117__compressed_pairIPNS_4pairINS_6vectorIfNS_9allocatorIfEEEENS_12basic_stringIcNS_11char_traitsIcEENS3_IcEEEEEENS3_ISB_EEEC1B7v160006IDnNS_18__default_init_tagEEEOT_OT0_, symObjAddr: 0x6F40, symBinAddr: 0x100007CB0, symSize: 0x30 }
  - { offsetInCU: 0x159A6, offset: 0x159A6, size: 0x8, addend: 0x0, symName: __ZNSt3__16vectorINS_4pairINS0_IfNS_9allocatorIfEEEENS_12basic_stringIcNS_11char_traitsIcEENS2_IcEEEEEENS2_ISA_EEE18__construct_at_endEm, symObjAddr: 0x6F70, symBinAddr: 0x100007CE0, symSize: 0xC0 }
  - { offsetInCU: 0x15A19, offset: 0x15A19, size: 0x8, addend: 0x0, symName: __ZNSt3__117__compressed_pairIPNS_4pairINS_6vectorIfNS_9allocatorIfEEEENS_12basic_stringIcNS_11char_traitsIcEENS3_IcEEEEEENS3_ISB_EEEC2B7v160006IDnNS_18__default_init_tagEEEOT_OT0_, symObjAddr: 0x7030, symBinAddr: 0x100007DA0, symSize: 0x40 }
  - { offsetInCU: 0x15A71, offset: 0x15A71, size: 0x8, addend: 0x0, symName: __ZNSt3__122__compressed_pair_elemINS_9allocatorINS_4pairINS_6vectorIfNS1_IfEEEENS_12basic_stringIcNS_11char_traitsIcEENS1_IcEEEEEEEELi1ELb1EEC2B7v160006ENS_18__default_init_tagE, symObjAddr: 0x7070, symBinAddr: 0x100007DE0, symSize: 0x20 }
  - { offsetInCU: 0x15AA5, offset: 0x15AA5, size: 0x8, addend: 0x0, symName: __ZNSt3__19allocatorINS_4pairINS_6vectorIfNS0_IfEEEENS_12basic_stringIcNS_11char_traitsIcEENS0_IcEEEEEEEC2B7v160006Ev, symObjAddr: 0x7090, symBinAddr: 0x100007E00, symSize: 0x20 }
  - { offsetInCU: 0x15ACF, offset: 0x15ACF, size: 0x8, addend: 0x0, symName: __ZNSt3__116__non_trivial_ifILb1ENS_9allocatorINS_4pairINS_6vectorIfNS1_IfEEEENS_12basic_stringIcNS_11char_traitsIcEENS1_IcEEEEEEEEEC2B7v160006Ev, symObjAddr: 0x70B0, symBinAddr: 0x100007E20, symSize: 0x10 }
  - { offsetInCU: 0x15AF9, offset: 0x15AF9, size: 0x8, addend: 0x0, symName: __ZNSt3__116allocator_traitsINS_9allocatorINS_4pairINS_6vectorIfNS1_IfEEEENS_12basic_stringIcNS_11char_traitsIcEENS1_IcEEEEEEEEE9constructB7v160006ISB_JEvEEvRSC_PT_DpOT0_, symObjAddr: 0x70C0, symBinAddr: 0x100007E30, symSize: 0x30 }
  - { offsetInCU: 0x15B3B, offset: 0x15B3B, size: 0x8, addend: 0x0, symName: __ZNSt3__19allocatorINS_4pairINS_6vectorIfNS0_IfEEEENS_12basic_stringIcNS_11char_traitsIcEENS0_IcEEEEEEE9constructB7v160006ISA_JEEEvPT_DpOT0_, symObjAddr: 0x70F0, symBinAddr: 0x100007E60, symSize: 0x20 }
  - { offsetInCU: 0x15B7D, offset: 0x15B7D, size: 0x8, addend: 0x0, symName: __ZNSt3__14pairINS_6vectorIfNS_9allocatorIfEEEENS_12basic_stringIcNS_11char_traitsIcEENS2_IcEEEEEC1B7v160006ILb1ELPv0EEEv, symObjAddr: 0x7110, symBinAddr: 0x100007E80, symSize: 0x20 }
  - { offsetInCU: 0x15BB7, offset: 0x15BB7, size: 0x8, addend: 0x0, symName: __ZNSt3__14pairINS_6vectorIfNS_9allocatorIfEEEENS_12basic_stringIcNS_11char_traitsIcEENS2_IcEEEEEC2B7v160006ILb1ELPv0EEEv, symObjAddr: 0x7130, symBinAddr: 0x100007EA0, symSize: 0x30 }
  - { offsetInCU: 0x15BF1, offset: 0x15BF1, size: 0x8, addend: 0x0, symName: __ZNSt3__16vectorINS_4pairINS0_IfNS_9allocatorIfEEEENS_12basic_stringIcNS_11char_traitsIcEENS2_IcEEEEEENS2_ISA_EEED2B7v160006Ev, symObjAddr: 0x7160, symBinAddr: 0x100007ED0, symSize: 0x40 }
  - { offsetInCU: 0x15C1B, offset: 0x15C1B, size: 0x8, addend: 0x0, symName: __ZNSt3__16vectorINS0_INS_4pairINS0_IfNS_9allocatorIfEEEENS_12basic_stringIcNS_11char_traitsIcEENS2_IcEEEEEENS2_ISA_EEEENS2_ISC_EEEC2Em, symObjAddr: 0x71A0, symBinAddr: 0x100007F10, symSize: 0xE0 }
  - { offsetInCU: 0x15C6B, offset: 0x15C6B, size: 0x8, addend: 0x0, symName: __ZNSt3__117__compressed_pairIPNS_6vectorINS_4pairINS1_IfNS_9allocatorIfEEEENS_12basic_stringIcNS_11char_traitsIcEENS3_IcEEEEEENS3_ISB_EEEENS3_ISD_EEEC1B7v160006IDnNS_18__default_init_tagEEEOT_OT0_, symObjAddr: 0x7280, symBinAddr: 0x100007FF0, symSize: 0x30 }
  - { offsetInCU: 0x15CC3, offset: 0x15CC3, size: 0x8, addend: 0x0, symName: __ZNSt3__16vectorINS0_INS_4pairINS0_IfNS_9allocatorIfEEEENS_12basic_stringIcNS_11char_traitsIcEENS2_IcEEEEEENS2_ISA_EEEENS2_ISC_EEE18__construct_at_endEm, symObjAddr: 0x72B0, symBinAddr: 0x100008020, symSize: 0xC0 }
  - { offsetInCU: 0x15D36, offset: 0x15D36, size: 0x8, addend: 0x0, symName: __ZNSt3__117__compressed_pairIPNS_6vectorINS_4pairINS1_IfNS_9allocatorIfEEEENS_12basic_stringIcNS_11char_traitsIcEENS3_IcEEEEEENS3_ISB_EEEENS3_ISD_EEEC2B7v160006IDnNS_18__default_init_tagEEEOT_OT0_, symObjAddr: 0x7370, symBinAddr: 0x1000080E0, symSize: 0x40 }
  - { offsetInCU: 0x15D8E, offset: 0x15D8E, size: 0x8, addend: 0x0, symName: __ZNSt3__122__compressed_pair_elemINS_9allocatorINS_6vectorINS_4pairINS2_IfNS1_IfEEEENS_12basic_stringIcNS_11char_traitsIcEENS1_IcEEEEEENS1_ISB_EEEEEELi1ELb1EEC2B7v160006ENS_18__default_init_tagE, symObjAddr: 0x73B0, symBinAddr: 0x100008120, symSize: 0x20 }
  - { offsetInCU: 0x15DC2, offset: 0x15DC2, size: 0x8, addend: 0x0, symName: __ZNSt3__19allocatorINS_6vectorINS_4pairINS1_IfNS0_IfEEEENS_12basic_stringIcNS_11char_traitsIcEENS0_IcEEEEEENS0_ISA_EEEEEC2B7v160006Ev, symObjAddr: 0x73D0, symBinAddr: 0x100008140, symSize: 0x20 }
  - { offsetInCU: 0x15DEC, offset: 0x15DEC, size: 0x8, addend: 0x0, symName: __ZNSt3__116__non_trivial_ifILb1ENS_9allocatorINS_6vectorINS_4pairINS2_IfNS1_IfEEEENS_12basic_stringIcNS_11char_traitsIcEENS1_IcEEEEEENS1_ISB_EEEEEEEC2B7v160006Ev, symObjAddr: 0x73F0, symBinAddr: 0x100008160, symSize: 0x10 }
  - { offsetInCU: 0x15E16, offset: 0x15E16, size: 0x8, addend: 0x0, symName: __ZNSt3__116allocator_traitsINS_9allocatorINS_6vectorINS_4pairINS2_IfNS1_IfEEEENS_12basic_stringIcNS_11char_traitsIcEENS1_IcEEEEEENS1_ISB_EEEEEEE9constructB7v160006ISD_JEvEEvRSE_PT_DpOT0_, symObjAddr: 0x7400, symBinAddr: 0x100008170, symSize: 0x30 }
  - { offsetInCU: 0x15E58, offset: 0x15E58, size: 0x8, addend: 0x0, symName: __ZNSt3__19allocatorINS_6vectorINS_4pairINS1_IfNS0_IfEEEENS_12basic_stringIcNS_11char_traitsIcEENS0_IcEEEEEENS0_ISA_EEEEE9constructB7v160006ISC_JEEEvPT_DpOT0_, symObjAddr: 0x7430, symBinAddr: 0x1000081A0, symSize: 0x20 }
  - { offsetInCU: 0x15E9A, offset: 0x15E9A, size: 0x8, addend: 0x0, symName: __ZNSt3__16vectorINS0_INS_4pairINS0_IfNS_9allocatorIfEEEENS_12basic_stringIcNS_11char_traitsIcEENS2_IcEEEEEENS2_ISA_EEEENS2_ISC_EEED2B7v160006Ev, symObjAddr: 0x7450, symBinAddr: 0x1000081C0, symSize: 0x40 }
  - { offsetInCU: 0x15EC4, offset: 0x15EC4, size: 0x8, addend: 0x0, symName: __ZNSt3__16vectorIfNS_9allocatorIfEEEaSB7v160006ERKS3_, symObjAddr: 0x7490, symBinAddr: 0x100008200, symSize: 0x60 }
  - { offsetInCU: 0x15EFB, offset: 0x15EFB, size: 0x8, addend: 0x0, symName: __ZNSt3__16vectorIfNS_9allocatorIfEEE19__copy_assign_allocB7v160006ERKS3_, symObjAddr: 0x74F0, symBinAddr: 0x100008260, symSize: 0x30 }
  - { offsetInCU: 0x15F30, offset: 0x15F30, size: 0x8, addend: 0x0, symName: __ZNSt3__16vectorIfNS_9allocatorIfEEE6assignIPfLi0EEEvT_S6_, symObjAddr: 0x7520, symBinAddr: 0x100008290, symSize: 0x160 }
  - { offsetInCU: 0x15FD0, offset: 0x15FD0, size: 0x8, addend: 0x0, symName: __ZNSt3__16vectorIfNS_9allocatorIfEEE19__copy_assign_allocB7v160006ERKS3_NS_17integral_constantIbLb0EEE, symObjAddr: 0x7680, symBinAddr: 0x1000083F0, symSize: 0x10 }
  - { offsetInCU: 0x1600C, offset: 0x1600C, size: 0x8, addend: 0x0, symName: __ZNSt3__16vectorIfNS_9allocatorIfEEE17__destruct_at_endB7v160006EPf, symObjAddr: 0x7750, symBinAddr: 0x1000084C0, symSize: 0x60 }
  - { offsetInCU: 0x16050, offset: 0x16050, size: 0x8, addend: 0x0, symName: __ZNSt3__16vectorIfNS_9allocatorIfEEE13__vdeallocateEv, symObjAddr: 0x77B0, symBinAddr: 0x100008520, symSize: 0x80 }
  - { offsetInCU: 0x1609B, offset: 0x1609B, size: 0x8, addend: 0x0, symName: __ZNKSt3__114__copy_trivialclB7v160006IffLi0EEENS_4pairIPT_PT0_EES4_S4_S6_, symObjAddr: 0x7A00, symBinAddr: 0x100008770, symSize: 0x40 }
  - { offsetInCU: 0x16108, offset: 0x16108, size: 0x8, addend: 0x0, symName: __ZNSt3__14pairIPfS1_EC1B7v160006IRS1_S1_LPv0EEEOT_OT0_, symObjAddr: 0x7BA0, symBinAddr: 0x100008910, symSize: 0x30 }
  - { offsetInCU: 0x16166, offset: 0x16166, size: 0x8, addend: 0x0, symName: __ZNSt3__14pairIPfS1_EC2B7v160006IRS1_S1_LPv0EEEOT_OT0_, symObjAddr: 0x7BD0, symBinAddr: 0x100008940, symSize: 0x30 }
  - { offsetInCU: 0x161C4, offset: 0x161C4, size: 0x8, addend: 0x0, symName: __ZNSt3__118__unwrap_iter_implIPfLb1EE8__unwrapB7v160006ES1_, symObjAddr: 0x7C00, symBinAddr: 0x100008970, symSize: 0x20 }
  - { offsetInCU: 0x161E7, offset: 0x161E7, size: 0x8, addend: 0x0, symName: __ZNSt3__14pairIPfS1_EC1B7v160006IS1_S1_LPv0EEEOT_OT0_, symObjAddr: 0x7C20, symBinAddr: 0x100008990, symSize: 0x30 }
  - { offsetInCU: 0x16245, offset: 0x16245, size: 0x8, addend: 0x0, symName: __ZNSt3__14pairIPfS1_EC2B7v160006IS1_S1_LPv0EEEOT_OT0_, symObjAddr: 0x7C50, symBinAddr: 0x1000089C0, symSize: 0x30 }
  - { offsetInCU: 0x162A3, offset: 0x162A3, size: 0x8, addend: 0x0, symName: __ZNSt3__118__unwrap_iter_implIPfLb1EE8__rewrapB7v160006ES1_S1_, symObjAddr: 0x7C80, symBinAddr: 0x1000089F0, symSize: 0x50 }
  - { offsetInCU: 0x162D4, offset: 0x162D4, size: 0x8, addend: 0x0, symName: __ZNSt3__16vectorIfNS_9allocatorIfEEE27__invalidate_iterators_pastB7v160006EPf, symObjAddr: 0x7CD0, symBinAddr: 0x100008A40, symSize: 0x10 }
  - { offsetInCU: 0x1630B, offset: 0x1630B, size: 0x8, addend: 0x0, symName: __ZNKSt3__16vectorIfNS_9allocatorIfEEE17__annotate_shrinkB7v160006Em, symObjAddr: 0x7CE0, symBinAddr: 0x100008A50, symSize: 0xA0 }
  - { offsetInCU: 0x16340, offset: 0x16340, size: 0x8, addend: 0x0, symName: __ZNSt3__16vectorIfNS_9allocatorIfEEE5clearB7v160006Ev, symObjAddr: 0x7D80, symBinAddr: 0x100008AF0, symSize: 0x50 }
  - { offsetInCU: 0x16375, offset: 0x16375, size: 0x8, addend: 0x0, symName: __ZNSt3__16vectorINS_4pairINS0_IfNS_9allocatorIfEEEENS_12basic_stringIcNS_11char_traitsIcEENS2_IcEEEEEENS2_ISA_EEE22__construct_one_at_endB7v160006IJRKSA_EEEvDpOT_, symObjAddr: 0x7DD0, symBinAddr: 0x100008B40, symSize: 0x90 }
  - { offsetInCU: 0x163C4, offset: 0x163C4, size: 0x8, addend: 0x0, symName: __ZNSt3__16vectorINS_4pairINS0_IfNS_9allocatorIfEEEENS_12basic_stringIcNS_11char_traitsIcEENS2_IcEEEEEENS2_ISA_EEE21__push_back_slow_pathIRKSA_EEvOT_, symObjAddr: 0x7E60, symBinAddr: 0x100008BD0, symSize: 0xD0 }
  - { offsetInCU: 0x16422, offset: 0x16422, size: 0x8, addend: 0x0, symName: __ZNSt3__116allocator_traitsINS_9allocatorINS_4pairINS_6vectorIfNS1_IfEEEENS_12basic_stringIcNS_11char_traitsIcEENS1_IcEEEEEEEEE9constructB7v160006ISB_JRKSB_EvEEvRSC_PT_DpOT0_, symObjAddr: 0x7F30, symBinAddr: 0x100008CA0, symSize: 0x30 }
  - { offsetInCU: 0x16479, offset: 0x16479, size: 0x8, addend: 0x0, symName: __ZNSt3__19allocatorINS_4pairINS_6vectorIfNS0_IfEEEENS_12basic_stringIcNS_11char_traitsIcEENS0_IcEEEEEEE9constructB7v160006ISA_JRKSA_EEEvPT_DpOT0_, symObjAddr: 0x7F60, symBinAddr: 0x100008CD0, symSize: 0x30 }
  - { offsetInCU: 0x164CF, offset: 0x164CF, size: 0x8, addend: 0x0, symName: __ZNKSt3__16vectorINS_4pairINS0_IfNS_9allocatorIfEEEENS_12basic_stringIcNS_11char_traitsIcEENS2_IcEEEEEENS2_ISA_EEE11__recommendB7v160006Em, symObjAddr: 0x7F90, symBinAddr: 0x100008D00, symSize: 0xA0 }
  - { offsetInCU: 0x16524, offset: 0x16524, size: 0x8, addend: 0x0, symName: __ZNSt3__114__split_bufferINS_4pairINS_6vectorIfNS_9allocatorIfEEEENS_12basic_stringIcNS_11char_traitsIcEENS3_IcEEEEEERNS3_ISB_EEEC1EmmSD_, symObjAddr: 0x8030, symBinAddr: 0x100008DA0, symSize: 0x40 }
  - { offsetInCU: 0x1657A, offset: 0x1657A, size: 0x8, addend: 0x0, symName: __ZNSt3__114__split_bufferINS_4pairINS_6vectorIfNS_9allocatorIfEEEENS_12basic_stringIcNS_11char_traitsIcEENS3_IcEEEEEERNS3_ISB_EEED1Ev, symObjAddr: 0x81A0, symBinAddr: 0x100008F10, symSize: 0x20 }
  - { offsetInCU: 0x165A6, offset: 0x165A6, size: 0x8, addend: 0x0, symName: __ZNSt3__114__split_bufferINS_4pairINS_6vectorIfNS_9allocatorIfEEEENS_12basic_stringIcNS_11char_traitsIcEENS3_IcEEEEEERNS3_ISB_EEEC2EmmSD_, symObjAddr: 0x81C0, symBinAddr: 0x100008F30, symSize: 0xC0 }
  - { offsetInCU: 0x1661A, offset: 0x1661A, size: 0x8, addend: 0x0, symName: __ZNSt3__117__compressed_pairIPNS_4pairINS_6vectorIfNS_9allocatorIfEEEENS_12basic_stringIcNS_11char_traitsIcEENS3_IcEEEEEERNS3_ISB_EEEC1B7v160006IDnSE_EEOT_OT0_, symObjAddr: 0x8280, symBinAddr: 0x100008FF0, symSize: 0x30 }
  - { offsetInCU: 0x16672, offset: 0x16672, size: 0x8, addend: 0x0, symName: __ZNSt3__114__split_bufferINS_4pairINS_6vectorIfNS_9allocatorIfEEEENS_12basic_stringIcNS_11char_traitsIcEENS3_IcEEEEEERNS3_ISB_EEE7__allocB7v160006Ev, symObjAddr: 0x82B0, symBinAddr: 0x100009020, symSize: 0x20 }
  - { offsetInCU: 0x16698, offset: 0x16698, size: 0x8, addend: 0x0, symName: __ZNSt3__114__split_bufferINS_4pairINS_6vectorIfNS_9allocatorIfEEEENS_12basic_stringIcNS_11char_traitsIcEENS3_IcEEEEEERNS3_ISB_EEE9__end_capB7v160006Ev, symObjAddr: 0x82D0, symBinAddr: 0x100009040, symSize: 0x20 }
  - { offsetInCU: 0x166BE, offset: 0x166BE, size: 0x8, addend: 0x0, symName: __ZNSt3__117__compressed_pairIPNS_4pairINS_6vectorIfNS_9allocatorIfEEEENS_12basic_stringIcNS_11char_traitsIcEENS3_IcEEEEEERNS3_ISB_EEEC2B7v160006IDnSE_EEOT_OT0_, symObjAddr: 0x82F0, symBinAddr: 0x100009060, symSize: 0x40 }
  - { offsetInCU: 0x16716, offset: 0x16716, size: 0x8, addend: 0x0, symName: __ZNSt3__122__compressed_pair_elemIRNS_9allocatorINS_4pairINS_6vectorIfNS1_IfEEEENS_12basic_stringIcNS_11char_traitsIcEENS1_IcEEEEEEEELi1ELb0EEC2B7v160006ISD_vEEOT_, symObjAddr: 0x8330, symBinAddr: 0x1000090A0, symSize: 0x20 }
  - { offsetInCU: 0x16758, offset: 0x16758, size: 0x8, addend: 0x0, symName: __ZNSt3__117__compressed_pairIPNS_4pairINS_6vectorIfNS_9allocatorIfEEEENS_12basic_stringIcNS_11char_traitsIcEENS3_IcEEEEEERNS3_ISB_EEE6secondB7v160006Ev, symObjAddr: 0x8350, symBinAddr: 0x1000090C0, symSize: 0x20 }
  - { offsetInCU: 0x1677E, offset: 0x1677E, size: 0x8, addend: 0x0, symName: __ZNSt3__122__compressed_pair_elemIRNS_9allocatorINS_4pairINS_6vectorIfNS1_IfEEEENS_12basic_stringIcNS_11char_traitsIcEENS1_IcEEEEEEEELi1ELb0EE5__getB7v160006Ev, symObjAddr: 0x8370, symBinAddr: 0x1000090E0, symSize: 0x20 }
  - { offsetInCU: 0x167A4, offset: 0x167A4, size: 0x8, addend: 0x0, symName: __ZNSt3__117__compressed_pairIPNS_4pairINS_6vectorIfNS_9allocatorIfEEEENS_12basic_stringIcNS_11char_traitsIcEENS3_IcEEEEEERNS3_ISB_EEE5firstB7v160006Ev, symObjAddr: 0x8390, symBinAddr: 0x100009100, symSize: 0x20 }
  - { offsetInCU: 0x167CA, offset: 0x167CA, size: 0x8, addend: 0x0, symName: __ZNSt3__129_AllocatorDestroyRangeReverseINS_9allocatorINS_4pairINS_6vectorIfNS1_IfEEEENS_12basic_stringIcNS_11char_traitsIcEENS1_IcEEEEEEEENS_16reverse_iteratorIPSB_EEEC1B7v160006ERSC_RSF_SI_, symObjAddr: 0x85D0, symBinAddr: 0x100009340, symSize: 0x40 }
  - { offsetInCU: 0x16821, offset: 0x16821, size: 0x8, addend: 0x0, symName: __ZNSt3__116allocator_traitsINS_9allocatorINS_4pairINS_6vectorIfNS1_IfEEEENS_12basic_stringIcNS_11char_traitsIcEENS1_IcEEEEEEEEE9constructB7v160006ISB_JSB_EvEEvRSC_PT_DpOT0_, symObjAddr: 0x8610, symBinAddr: 0x100009380, symSize: 0x30 }
  - { offsetInCU: 0x16878, offset: 0x16878, size: 0x8, addend: 0x0, symName: __ZNSt3__128__exception_guard_exceptionsINS_29_AllocatorDestroyRangeReverseINS_9allocatorINS_4pairINS_6vectorIfNS2_IfEEEENS_12basic_stringIcNS_11char_traitsIcEENS2_IcEEEEEEEENS_16reverse_iteratorIPSC_EEEEE10__completeB7v160006Ev, symObjAddr: 0x8640, symBinAddr: 0x1000093B0, symSize: 0x20 }
  - { offsetInCU: 0x1689E, offset: 0x1689E, size: 0x8, addend: 0x0, symName: __ZNSt3__128__exception_guard_exceptionsINS_29_AllocatorDestroyRangeReverseINS_9allocatorINS_4pairINS_6vectorIfNS2_IfEEEENS_12basic_stringIcNS_11char_traitsIcEENS2_IcEEEEEEEENS_16reverse_iteratorIPSC_EEEEED1B7v160006Ev, symObjAddr: 0x8660, symBinAddr: 0x1000093D0, symSize: 0x20 }
  - { offsetInCU: 0x168C8, offset: 0x168C8, size: 0x8, addend: 0x0, symName: __ZNSt3__128__exception_guard_exceptionsINS_29_AllocatorDestroyRangeReverseINS_9allocatorINS_4pairINS_6vectorIfNS2_IfEEEENS_12basic_stringIcNS_11char_traitsIcEENS2_IcEEEEEEEENS_16reverse_iteratorIPSC_EEEEEC1B7v160006ESH_, symObjAddr: 0x8680, symBinAddr: 0x1000093F0, symSize: 0x40 }
  - { offsetInCU: 0x16900, offset: 0x16900, size: 0x8, addend: 0x0, symName: __ZNSt3__128__exception_guard_exceptionsINS_29_AllocatorDestroyRangeReverseINS_9allocatorINS_4pairINS_6vectorIfNS2_IfEEEENS_12basic_stringIcNS_11char_traitsIcEENS2_IcEEEEEEEENS_16reverse_iteratorIPSC_EEEEEC2B7v160006ESH_, symObjAddr: 0x86C0, symBinAddr: 0x100009430, symSize: 0x30 }
  - { offsetInCU: 0x16938, offset: 0x16938, size: 0x8, addend: 0x0, symName: __ZNSt3__129_AllocatorDestroyRangeReverseINS_9allocatorINS_4pairINS_6vectorIfNS1_IfEEEENS_12basic_stringIcNS_11char_traitsIcEENS1_IcEEEEEEEENS_16reverse_iteratorIPSB_EEEC2B7v160006ERSC_RSF_SI_, symObjAddr: 0x86F0, symBinAddr: 0x100009460, symSize: 0x40 }
  - { offsetInCU: 0x1698F, offset: 0x1698F, size: 0x8, addend: 0x0, symName: __ZNSt3__19allocatorINS_4pairINS_6vectorIfNS0_IfEEEENS_12basic_stringIcNS_11char_traitsIcEENS0_IcEEEEEEE9constructB7v160006ISA_JSA_EEEvPT_DpOT0_, symObjAddr: 0x8730, symBinAddr: 0x1000094A0, symSize: 0x30 }
  - { offsetInCU: 0x169E5, offset: 0x169E5, size: 0x8, addend: 0x0, symName: __ZNSt3__14pairINS_6vectorIfNS_9allocatorIfEEEENS_12basic_stringIcNS_11char_traitsIcEENS2_IcEEEEEC1EOSA_, symObjAddr: 0x8760, symBinAddr: 0x1000094D0, symSize: 0x30 }
  - { offsetInCU: 0x16A19, offset: 0x16A19, size: 0x8, addend: 0x0, symName: __ZNSt3__14pairINS_6vectorIfNS_9allocatorIfEEEENS_12basic_stringIcNS_11char_traitsIcEENS2_IcEEEEEC2EOSA_, symObjAddr: 0x8790, symBinAddr: 0x100009500, symSize: 0x40 }
  - { offsetInCU: 0x16A4D, offset: 0x16A4D, size: 0x8, addend: 0x0, symName: __ZNSt3__16vectorIfNS_9allocatorIfEEEC1B7v160006EOS3_, symObjAddr: 0x87D0, symBinAddr: 0x100009540, symSize: 0x30 }
  - { offsetInCU: 0x16A88, offset: 0x16A88, size: 0x8, addend: 0x0, symName: __ZNSt3__112basic_stringIcNS_11char_traitsIcEENS_9allocatorIcEEEC1B7v160006EOS5_, symObjAddr: 0x8800, symBinAddr: 0x100009570, symSize: 0x30 }
  - { offsetInCU: 0x16AC1, offset: 0x16AC1, size: 0x8, addend: 0x0, symName: __ZNSt3__16vectorIfNS_9allocatorIfEEEC2B7v160006EOS3_, symObjAddr: 0x8830, symBinAddr: 0x1000095A0, symSize: 0xE0 }
  - { offsetInCU: 0x16AFC, offset: 0x16AFC, size: 0x8, addend: 0x0, symName: __ZNSt3__112basic_stringIcNS_11char_traitsIcEENS_9allocatorIcEEEC2B7v160006EOS5_, symObjAddr: 0x8920, symBinAddr: 0x100009690, symSize: 0x80 }
  - { offsetInCU: 0x16B35, offset: 0x16B35, size: 0x8, addend: 0x0, symName: __ZNKSt3__112basic_stringIcNS_11char_traitsIcEENS_9allocatorIcEEE9__is_longB7v160006Ev, symObjAddr: 0x89A0, symBinAddr: 0x100009710, symSize: 0x30 }
  - { offsetInCU: 0x16B5B, offset: 0x16B5B, size: 0x8, addend: 0x0, symName: __ZNKSt3__117__compressed_pairINS_12basic_stringIcNS_11char_traitsIcEENS_9allocatorIcEEE5__repES5_E5firstB7v160006Ev, symObjAddr: 0x89E0, symBinAddr: 0x100009750, symSize: 0x20 }
  - { offsetInCU: 0x16B81, offset: 0x16B81, size: 0x8, addend: 0x0, symName: __ZNKSt3__122__compressed_pair_elemINS_12basic_stringIcNS_11char_traitsIcEENS_9allocatorIcEEE5__repELi0ELb0EE5__getB7v160006Ev, symObjAddr: 0x8A00, symBinAddr: 0x100009770, symSize: 0x10 }
  - { offsetInCU: 0x16BA7, offset: 0x16BA7, size: 0x8, addend: 0x0, symName: __ZNSt3__128__exception_guard_exceptionsINS_29_AllocatorDestroyRangeReverseINS_9allocatorINS_4pairINS_6vectorIfNS2_IfEEEENS_12basic_stringIcNS_11char_traitsIcEENS2_IcEEEEEEEENS_16reverse_iteratorIPSC_EEEEED2B7v160006Ev, symObjAddr: 0x8A10, symBinAddr: 0x100009780, symSize: 0x40 }
  - { offsetInCU: 0x16BD1, offset: 0x16BD1, size: 0x8, addend: 0x0, symName: __ZNKSt3__129_AllocatorDestroyRangeReverseINS_9allocatorINS_4pairINS_6vectorIfNS1_IfEEEENS_12basic_stringIcNS_11char_traitsIcEENS1_IcEEEEEEEENS_16reverse_iteratorIPSB_EEEclB7v160006Ev, symObjAddr: 0x8A50, symBinAddr: 0x1000097C0, symSize: 0xF0 }
  - { offsetInCU: 0x16BF8, offset: 0x16BF8, size: 0x8, addend: 0x0, symName: __ZNSt3__116reverse_iteratorINS0_IPNS_4pairINS_6vectorIfNS_9allocatorIfEEEENS_12basic_stringIcNS_11char_traitsIcEENS3_IcEEEEEEEEEC1B7v160006ESD_, symObjAddr: 0x8BB0, symBinAddr: 0x100009920, symSize: 0x30 }
  - { offsetInCU: 0x16C30, offset: 0x16C30, size: 0x8, addend: 0x0, symName: __ZNSt3__116reverse_iteratorINS0_IPNS_4pairINS_6vectorIfNS_9allocatorIfEEEENS_12basic_stringIcNS_11char_traitsIcEENS3_IcEEEEEEEEEppB7v160006Ev, symObjAddr: 0x8C50, symBinAddr: 0x1000099C0, symSize: 0x30 }
  - { offsetInCU: 0x16C56, offset: 0x16C56, size: 0x8, addend: 0x0, symName: __ZNKSt3__116reverse_iteratorINS0_IPNS_4pairINS_6vectorIfNS_9allocatorIfEEEENS_12basic_stringIcNS_11char_traitsIcEENS3_IcEEEEEEEEE4baseB7v160006Ev, symObjAddr: 0x8C80, symBinAddr: 0x1000099F0, symSize: 0x20 }
  - { offsetInCU: 0x16C81, offset: 0x16C81, size: 0x8, addend: 0x0, symName: __ZNSt3__119__to_address_helperINS_16reverse_iteratorINS1_IPNS_4pairINS_6vectorIfNS_9allocatorIfEEEENS_12basic_stringIcNS_11char_traitsIcEENS4_IcEEEEEEEEEEvE6__callB7v160006ERKSF_, symObjAddr: 0x8CA0, symBinAddr: 0x100009A10, symSize: 0x40 }
  - { offsetInCU: 0x16CA4, offset: 0x16CA4, size: 0x8, addend: 0x0, symName: __ZNKSt3__116reverse_iteratorINS0_IPNS_4pairINS_6vectorIfNS_9allocatorIfEEEENS_12basic_stringIcNS_11char_traitsIcEENS3_IcEEEEEEEEEptB7v160006Ev, symObjAddr: 0x8CE0, symBinAddr: 0x100009A50, symSize: 0x20 }
  - { offsetInCU: 0x16CCA, offset: 0x16CCA, size: 0x8, addend: 0x0, symName: __ZNKSt3__116reverse_iteratorINS0_IPNS_4pairINS_6vectorIfNS_9allocatorIfEEEENS_12basic_stringIcNS_11char_traitsIcEENS3_IcEEEEEEEEEdeB7v160006Ev, symObjAddr: 0x8D00, symBinAddr: 0x100009A70, symSize: 0x40 }
  - { offsetInCU: 0x16CFE, offset: 0x16CFE, size: 0x8, addend: 0x0, symName: __ZNSt3__116reverse_iteratorIPNS_4pairINS_6vectorIfNS_9allocatorIfEEEENS_12basic_stringIcNS_11char_traitsIcEENS3_IcEEEEEEEmmB7v160006Ev, symObjAddr: 0x8D40, symBinAddr: 0x100009AB0, symSize: 0x20 }
  - { offsetInCU: 0x16D24, offset: 0x16D24, size: 0x8, addend: 0x0, symName: __ZNSt3__116reverse_iteratorINS0_IPNS_4pairINS_6vectorIfNS_9allocatorIfEEEENS_12basic_stringIcNS_11char_traitsIcEENS3_IcEEEEEEEEEC2B7v160006ESD_, symObjAddr: 0x8D60, symBinAddr: 0x100009AD0, symSize: 0x40 }
  - { offsetInCU: 0x16D5C, offset: 0x16D5C, size: 0x8, addend: 0x0, symName: __ZNSt3__114__split_bufferINS_4pairINS_6vectorIfNS_9allocatorIfEEEENS_12basic_stringIcNS_11char_traitsIcEENS3_IcEEEEEERNS3_ISB_EEED2Ev, symObjAddr: 0x8DA0, symBinAddr: 0x100009B10, symSize: 0x70 }
  - { offsetInCU: 0x16D88, offset: 0x16D88, size: 0x8, addend: 0x0, symName: __ZNSt3__114__split_bufferINS_4pairINS_6vectorIfNS_9allocatorIfEEEENS_12basic_stringIcNS_11char_traitsIcEENS3_IcEEEEEERNS3_ISB_EEE5clearB7v160006Ev, symObjAddr: 0x8E10, symBinAddr: 0x100009B80, symSize: 0x20 }
  - { offsetInCU: 0x16DAE, offset: 0x16DAE, size: 0x8, addend: 0x0, symName: __ZNKSt3__114__split_bufferINS_4pairINS_6vectorIfNS_9allocatorIfEEEENS_12basic_stringIcNS_11char_traitsIcEENS3_IcEEEEEERNS3_ISB_EEE8capacityB7v160006Ev, symObjAddr: 0x8E30, symBinAddr: 0x100009BA0, symSize: 0x40 }
  - { offsetInCU: 0x16DD4, offset: 0x16DD4, size: 0x8, addend: 0x0, symName: __ZNSt3__114__split_bufferINS_4pairINS_6vectorIfNS_9allocatorIfEEEENS_12basic_stringIcNS_11char_traitsIcEENS3_IcEEEEEERNS3_ISB_EEE17__destruct_at_endB7v160006EPSB_, symObjAddr: 0x8E70, symBinAddr: 0x100009BE0, symSize: 0x30 }
  - { offsetInCU: 0x16E08, offset: 0x16E08, size: 0x8, addend: 0x0, symName: __ZNSt3__114__split_bufferINS_4pairINS_6vectorIfNS_9allocatorIfEEEENS_12basic_stringIcNS_11char_traitsIcEENS3_IcEEEEEERNS3_ISB_EEE17__destruct_at_endB7v160006EPSB_NS_17integral_constantIbLb0EEE, symObjAddr: 0x8EA0, symBinAddr: 0x100009C10, symSize: 0x80 }
  - { offsetInCU: 0x16E48, offset: 0x16E48, size: 0x8, addend: 0x0, symName: __ZNKSt3__114__split_bufferINS_4pairINS_6vectorIfNS_9allocatorIfEEEENS_12basic_stringIcNS_11char_traitsIcEENS3_IcEEEEEERNS3_ISB_EEE9__end_capB7v160006Ev, symObjAddr: 0x8F20, symBinAddr: 0x100009C90, symSize: 0x20 }
  - { offsetInCU: 0x16E6E, offset: 0x16E6E, size: 0x8, addend: 0x0, symName: __ZNKSt3__117__compressed_pairIPNS_4pairINS_6vectorIfNS_9allocatorIfEEEENS_12basic_stringIcNS_11char_traitsIcEENS3_IcEEEEEERNS3_ISB_EEE5firstB7v160006Ev, symObjAddr: 0x8F40, symBinAddr: 0x100009CB0, symSize: 0x20 }
  - { offsetInCU: 0x16E94, offset: 0x16E94, size: 0x8, addend: 0x0, symName: __ZNSt3__16vectorIfNS_9allocatorIfEEE13__move_assignERS3_NS_17integral_constantIbLb1EEE, symObjAddr: 0x8F60, symBinAddr: 0x100009CD0, symSize: 0xA0 }
  - { offsetInCU: 0x16ED6, offset: 0x16ED6, size: 0x8, addend: 0x0, symName: __ZNSt3__16vectorIfNS_9allocatorIfEEE19__move_assign_allocB7v160006ERS3_, symObjAddr: 0x9000, symBinAddr: 0x100009D70, symSize: 0x30 }
  - { offsetInCU: 0x16F0B, offset: 0x16F0B, size: 0x8, addend: 0x0, symName: __ZNSt3__16vectorIfNS_9allocatorIfEEE19__move_assign_allocB7v160006ERS3_NS_17integral_constantIbLb1EEE, symObjAddr: 0x9030, symBinAddr: 0x100009DA0, symSize: 0x30 }
  - { offsetInCU: 0x16F4B, offset: 0x16F4B, size: 0x8, addend: 0x0, symName: __ZNSt3__19basic_iosIcNS_11char_traitsIcEEEC2B7v160006Ev, symObjAddr: 0x9060, symBinAddr: 0x100009DD0, symSize: 0x40 }
  - { offsetInCU: 0x16F75, offset: 0x16F75, size: 0x8, addend: 0x0, symName: __ZNSt3__113basic_ostreamIcNS_11char_traitsIcEEEC2B7v160006EPNS_15basic_streambufIcS2_EE, symObjAddr: 0x90A0, symBinAddr: 0x100009E10, symSize: 0x50 }
  - { offsetInCU: 0x16FBA, offset: 0x16FBA, size: 0x8, addend: 0x0, symName: __ZNSt3__19basic_iosIcNS_11char_traitsIcEEE8setstateB7v160006Ej, symObjAddr: 0x90F0, symBinAddr: 0x100009E60, symSize: 0x30 }
  - { offsetInCU: 0x16FEF, offset: 0x16FEF, size: 0x8, addend: 0x0, symName: __ZNSt3__18ios_baseC2B7v160006Ev, symObjAddr: 0x9120, symBinAddr: 0x100009E90, symSize: 0x20 }
  - { offsetInCU: 0x17019, offset: 0x17019, size: 0x8, addend: 0x0, symName: __ZNSt3__19basic_iosIcNS_11char_traitsIcEEE4initB7v160006EPNS_15basic_streambufIcS2_EE, symObjAddr: 0x9140, symBinAddr: 0x100009EB0, symSize: 0x50 }
  - { offsetInCU: 0x17050, offset: 0x17050, size: 0x8, addend: 0x0, symName: __ZNSt3__111char_traitsIcE3eofEv, symObjAddr: 0x9190, symBinAddr: 0x100009F00, symSize: 0x10 }
  - { offsetInCU: 0x17064, offset: 0x17064, size: 0x8, addend: 0x0, symName: __ZNSt3__18ios_base8setstateB7v160006Ej, symObjAddr: 0x91A0, symBinAddr: 0x100009F10, symSize: 0x30 }
  - { offsetInCU: 0x1709B, offset: 0x1709B, size: 0x8, addend: 0x0, symName: __ZNSt3__111char_traitsIcE6lengthEPKc, symObjAddr: 0x93C0, symBinAddr: 0x10000A130, symSize: 0x30 }
  - { offsetInCU: 0x170DC, offset: 0x170DC, size: 0x8, addend: 0x0, symName: __ZNKSt3__113basic_ostreamIcNS_11char_traitsIcEEE6sentrycvbB7v160006Ev, symObjAddr: 0x93F0, symBinAddr: 0x10000A160, symSize: 0x20 }
  - { offsetInCU: 0x17102, offset: 0x17102, size: 0x8, addend: 0x0, symName: __ZNSt3__119ostreambuf_iteratorIcNS_11char_traitsIcEEEC1B7v160006ERNS_13basic_ostreamIcS2_EE, symObjAddr: 0x9630, symBinAddr: 0x10000A3A0, symSize: 0x30 }
  - { offsetInCU: 0x1713A, offset: 0x1713A, size: 0x8, addend: 0x0, symName: __ZNKSt3__18ios_base5flagsB7v160006Ev, symObjAddr: 0x9660, symBinAddr: 0x10000A3D0, symSize: 0x20 }
  - { offsetInCU: 0x17162, offset: 0x17162, size: 0x8, addend: 0x0, symName: __ZNKSt3__19basic_iosIcNS_11char_traitsIcEEE4fillB7v160006Ev, symObjAddr: 0x9680, symBinAddr: 0x10000A3F0, symSize: 0x70 }
  - { offsetInCU: 0x1718A, offset: 0x1718A, size: 0x8, addend: 0x0, symName: __ZNKSt3__119ostreambuf_iteratorIcNS_11char_traitsIcEEE6failedB7v160006Ev, symObjAddr: 0x96F0, symBinAddr: 0x10000A460, symSize: 0x20 }
  - { offsetInCU: 0x171B0, offset: 0x171B0, size: 0x8, addend: 0x0, symName: __ZNKSt3__18ios_base5widthB7v160006Ev, symObjAddr: 0x9710, symBinAddr: 0x10000A480, symSize: 0x20 }
  - { offsetInCU: 0x171D8, offset: 0x171D8, size: 0x8, addend: 0x0, symName: __ZNSt3__115basic_streambufIcNS_11char_traitsIcEEE5sputnB7v160006EPKcl, symObjAddr: 0x9730, symBinAddr: 0x10000A4A0, symSize: 0x30 }
  - { offsetInCU: 0x1721A, offset: 0x1721A, size: 0x8, addend: 0x0, symName: __ZNSt3__112basic_stringIcNS_11char_traitsIcEENS_9allocatorIcEEEC1B7v160006Emc, symObjAddr: 0x9760, symBinAddr: 0x10000A4D0, symSize: 0x30 }
  - { offsetInCU: 0x17262, offset: 0x17262, size: 0x8, addend: 0x0, symName: __ZNKSt3__112basic_stringIcNS_11char_traitsIcEENS_9allocatorIcEEE4dataB7v160006Ev, symObjAddr: 0x9790, symBinAddr: 0x10000A500, symSize: 0x30 }
  - { offsetInCU: 0x17288, offset: 0x17288, size: 0x8, addend: 0x0, symName: __ZNSt3__18ios_base5widthB7v160006El, symObjAddr: 0x97C0, symBinAddr: 0x10000A530, symSize: 0x30 }
  - { offsetInCU: 0x172CE, offset: 0x172CE, size: 0x8, addend: 0x0, symName: __ZNSt3__112basic_stringIcNS_11char_traitsIcEENS_9allocatorIcEEEC2B7v160006Emc, symObjAddr: 0x97F0, symBinAddr: 0x10000A560, symSize: 0x50 }
  - { offsetInCU: 0x17316, offset: 0x17316, size: 0x8, addend: 0x0, symName: __ZNKSt3__112basic_stringIcNS_11char_traitsIcEENS_9allocatorIcEEE13__get_pointerB7v160006Ev, symObjAddr: 0x9850, symBinAddr: 0x10000A5C0, symSize: 0x50 }
  - { offsetInCU: 0x1733C, offset: 0x1733C, size: 0x8, addend: 0x0, symName: __ZNKSt3__112basic_stringIcNS_11char_traitsIcEENS_9allocatorIcEEE18__get_long_pointerB7v160006Ev, symObjAddr: 0x98A0, symBinAddr: 0x10000A610, symSize: 0x20 }
  - { offsetInCU: 0x17362, offset: 0x17362, size: 0x8, addend: 0x0, symName: __ZNKSt3__112basic_stringIcNS_11char_traitsIcEENS_9allocatorIcEEE19__get_short_pointerB7v160006Ev, symObjAddr: 0x98C0, symBinAddr: 0x10000A630, symSize: 0x30 }
  - { offsetInCU: 0x17388, offset: 0x17388, size: 0x8, addend: 0x0, symName: __ZNSt3__114pointer_traitsIPKcE10pointer_toB7v160006ERS1_, symObjAddr: 0x98F0, symBinAddr: 0x10000A660, symSize: 0x10 }
  - { offsetInCU: 0x173AB, offset: 0x173AB, size: 0x8, addend: 0x0, symName: __ZNSt3__119ostreambuf_iteratorIcNS_11char_traitsIcEEEC2B7v160006ERNS_13basic_ostreamIcS2_EE, symObjAddr: 0x9900, symBinAddr: 0x10000A670, symSize: 0x50 }
  - { offsetInCU: 0x173E3, offset: 0x173E3, size: 0x8, addend: 0x0, symName: __ZNKSt3__19basic_iosIcNS_11char_traitsIcEEE5rdbufB7v160006Ev, symObjAddr: 0x9950, symBinAddr: 0x10000A6C0, symSize: 0x20 }
  - { offsetInCU: 0x1740B, offset: 0x1740B, size: 0x8, addend: 0x0, symName: __ZNKSt3__18ios_base5rdbufB7v160006Ev, symObjAddr: 0x9970, symBinAddr: 0x10000A6E0, symSize: 0x20 }
  - { offsetInCU: 0x17431, offset: 0x17431, size: 0x8, addend: 0x0, symName: __ZNSt3__111char_traitsIcE11eq_int_typeEii, symObjAddr: 0x9990, symBinAddr: 0x10000A700, symSize: 0x20 }
  - { offsetInCU: 0x17462, offset: 0x17462, size: 0x8, addend: 0x0, symName: __ZNKSt3__19basic_iosIcNS_11char_traitsIcEEE5widenB7v160006Ec, symObjAddr: 0x99B0, symBinAddr: 0x10000A720, symSize: 0x80 }
  - { offsetInCU: 0x174D0, offset: 0x174D0, size: 0x8, addend: 0x0, symName: __ZNKSt3__15ctypeIcE5widenB7v160006Ec, symObjAddr: 0x9A60, symBinAddr: 0x10000A7D0, symSize: 0x30 }
  - { offsetInCU: 0x17505, offset: 0x17505, size: 0x8, addend: 0x0, symName: __ZNSt3__113basic_istreamIcNS_11char_traitsIcEEEC2B7v160006EPNS_15basic_streambufIcS2_EE, symObjAddr: 0x9AB0, symBinAddr: 0x10000A820, symSize: 0x50 }
  - { offsetInCU: 0x1754A, offset: 0x1754A, size: 0x8, addend: 0x0, symName: __ZNSt3__16vectorINS_4pairINS0_IfNS_9allocatorIfEEEENS_12basic_stringIcNS_11char_traitsIcEENS2_IcEEEEEENS2_ISA_EEEC2B7v160006Ev, symObjAddr: 0x9B00, symBinAddr: 0x10000A870, symSize: 0x60 }
  - { offsetInCU: 0x17574, offset: 0x17574, size: 0x8, addend: 0x0, symName: __ZNKSt3__19basic_iosIcNS_11char_traitsIcEEE4failB7v160006Ev, symObjAddr: 0x9B60, symBinAddr: 0x10000A8D0, symSize: 0x20 }
  - { offsetInCU: 0x1759A, offset: 0x1759A, size: 0x8, addend: 0x0, symName: __ZNKSt3__18ios_base4failB7v160006Ev, symObjAddr: 0x9B80, symBinAddr: 0x10000A8F0, symSize: 0x20 }
  - { offsetInCU: 0x175C2, offset: 0x175C2, size: 0x8, addend: 0x0, symName: __ZNSt3__114basic_iostreamIcNS_11char_traitsIcEEEC2B7v160006EPNS_15basic_streambufIcS2_EE, symObjAddr: 0x9BA0, symBinAddr: 0x10000A910, symSize: 0xA0 }
  - { offsetInCU: 0x17608, offset: 0x17608, size: 0x8, addend: 0x0, symName: __ZNSt3__115basic_stringbufIcNS_11char_traitsIcEENS_9allocatorIcEEEC1B7v160006ERKNS_12basic_stringIcS2_S4_EEj, symObjAddr: 0x9C40, symBinAddr: 0x10000A9B0, symSize: 0x30 }
  - { offsetInCU: 0x1764E, offset: 0x1764E, size: 0x8, addend: 0x0, symName: __ZNSt3__113basic_ostreamIcNS_11char_traitsIcEEEC2B7v160006Ev, symObjAddr: 0x9C70, symBinAddr: 0x10000A9E0, symSize: 0x30 }
  - { offsetInCU: 0x17685, offset: 0x17685, size: 0x8, addend: 0x0, symName: __ZNSt3__115basic_stringbufIcNS_11char_traitsIcEENS_9allocatorIcEEEC2B7v160006ERKNS_12basic_stringIcS2_S4_EEj, symObjAddr: 0x9CA0, symBinAddr: 0x10000AA10, symSize: 0xA0 }
  - { offsetInCU: 0x176CB, offset: 0x176CB, size: 0x8, addend: 0x0, symName: __ZNKSt3__112basic_stringIcNS_11char_traitsIcEENS_9allocatorIcEEE13get_allocatorB7v160006Ev, symObjAddr: 0x9D40, symBinAddr: 0x10000AAB0, symSize: 0x20 }
  - { offsetInCU: 0x176F1, offset: 0x176F1, size: 0x8, addend: 0x0, symName: __ZNSt3__112basic_stringIcNS_11char_traitsIcEENS_9allocatorIcEEEC1B7v160006ERKS4_, symObjAddr: 0x9D60, symBinAddr: 0x10000AAD0, symSize: 0x30 }
  - { offsetInCU: 0x1772A, offset: 0x1772A, size: 0x8, addend: 0x0, symName: __ZNKSt3__112basic_stringIcNS_11char_traitsIcEENS_9allocatorIcEEE7__allocB7v160006Ev, symObjAddr: 0x9D90, symBinAddr: 0x10000AB00, symSize: 0x20 }
  - { offsetInCU: 0x17750, offset: 0x17750, size: 0x8, addend: 0x0, symName: __ZNKSt3__117__compressed_pairINS_12basic_stringIcNS_11char_traitsIcEENS_9allocatorIcEEE5__repES5_E6secondB7v160006Ev, symObjAddr: 0x9DB0, symBinAddr: 0x10000AB20, symSize: 0x20 }
  - { offsetInCU: 0x17776, offset: 0x17776, size: 0x8, addend: 0x0, symName: __ZNKSt3__122__compressed_pair_elemINS_9allocatorIcEELi1ELb1EE5__getB7v160006Ev, symObjAddr: 0x9DD0, symBinAddr: 0x10000AB40, symSize: 0x10 }
  - { offsetInCU: 0x1779C, offset: 0x1779C, size: 0x8, addend: 0x0, symName: __ZNSt3__112basic_stringIcNS_11char_traitsIcEENS_9allocatorIcEEEC2B7v160006ERKS4_, symObjAddr: 0x9DE0, symBinAddr: 0x10000AB50, symSize: 0x50 }
  - { offsetInCU: 0x177D5, offset: 0x177D5, size: 0x8, addend: 0x0, symName: __ZNSt3__117__compressed_pairINS_12basic_stringIcNS_11char_traitsIcEENS_9allocatorIcEEE5__repES5_EC1B7v160006INS_18__default_init_tagERKS5_EEOT_OT0_, symObjAddr: 0x9E30, symBinAddr: 0x10000ABA0, symSize: 0x30 }
  - { offsetInCU: 0x1782D, offset: 0x1782D, size: 0x8, addend: 0x0, symName: __ZNSt3__117__compressed_pairINS_12basic_stringIcNS_11char_traitsIcEENS_9allocatorIcEEE5__repES5_EC2B7v160006INS_18__default_init_tagERKS5_EEOT_OT0_, symObjAddr: 0x9E60, symBinAddr: 0x10000ABD0, symSize: 0x40 }
  - { offsetInCU: 0x17885, offset: 0x17885, size: 0x8, addend: 0x0, symName: __ZNSt3__122__compressed_pair_elemINS_9allocatorIcEELi1ELb1EEC2B7v160006IRKS2_vEEOT_, symObjAddr: 0x9EA0, symBinAddr: 0x10000AC10, symSize: 0x10 }
  - { offsetInCU: 0x178E5, offset: 0x178E5, size: 0x8, addend: 0x0, symName: __ZNKSt3__113basic_istreamIcNS_11char_traitsIcEEE6sentrycvbB7v160006Ev, symObjAddr: 0x9EB0, symBinAddr: 0x10000AC20, symSize: 0x20 }
  - { offsetInCU: 0x1790B, offset: 0x1790B, size: 0x8, addend: 0x0, symName: __ZNSt3__112basic_stringIcNS_11char_traitsIcEENS_9allocatorIcEEE5clearB7v160006Ev, symObjAddr: 0x9ED0, symBinAddr: 0x10000AC40, symSize: 0xA0 }
  - { offsetInCU: 0x17933, offset: 0x17933, size: 0x8, addend: 0x0, symName: __ZNSt3__115basic_streambufIcNS_11char_traitsIcEEE6sbumpcB7v160006Ev, symObjAddr: 0x9F70, symBinAddr: 0x10000ACE0, symSize: 0x60 }
  - { offsetInCU: 0x17959, offset: 0x17959, size: 0x8, addend: 0x0, symName: __ZNSt3__111char_traitsIcE12to_char_typeEi, symObjAddr: 0x9FD0, symBinAddr: 0x10000AD40, symSize: 0x10 }
  - { offsetInCU: 0x1797C, offset: 0x1797C, size: 0x8, addend: 0x0, symName: __ZNSt3__111char_traitsIcE2eqEcc, symObjAddr: 0x9FE0, symBinAddr: 0x10000AD50, symSize: 0x30 }
  - { offsetInCU: 0x179AD, offset: 0x179AD, size: 0x8, addend: 0x0, symName: __ZNKSt3__112basic_stringIcNS_11char_traitsIcEENS_9allocatorIcEEE4sizeB7v160006Ev, symObjAddr: 0xA010, symBinAddr: 0x10000AD80, symSize: 0x50 }
  - { offsetInCU: 0x179D3, offset: 0x179D3, size: 0x8, addend: 0x0, symName: __ZNKSt3__112basic_stringIcNS_11char_traitsIcEENS_9allocatorIcEEE8max_sizeB7v160006Ev, symObjAddr: 0xA060, symBinAddr: 0x10000ADD0, symSize: 0xA0 }
  - { offsetInCU: 0x17A26, offset: 0x17A26, size: 0x8, addend: 0x0, symName: __ZNSt3__18ios_base18__setstate_nothrowB7v160006Ej, symObjAddr: 0xA100, symBinAddr: 0x10000AE70, symSize: 0x50 }
  - { offsetInCU: 0x17A5B, offset: 0x17A5B, size: 0x8, addend: 0x0, symName: __ZNKSt3__19basic_iosIcNS_11char_traitsIcEEE10exceptionsB7v160006Ev, symObjAddr: 0xA150, symBinAddr: 0x10000AEC0, symSize: 0x20 }
  - { offsetInCU: 0x17A81, offset: 0x17A81, size: 0x8, addend: 0x0, symName: __ZNSt3__111char_traitsIcE6assignERcRKc, symObjAddr: 0xA180, symBinAddr: 0x10000AEF0, symSize: 0x20 }
  - { offsetInCU: 0x17AB2, offset: 0x17AB2, size: 0x8, addend: 0x0, symName: __ZNSt3__112basic_stringIcNS_11char_traitsIcEENS_9allocatorIcEEE18__get_long_pointerB7v160006Ev, symObjAddr: 0xA1A0, symBinAddr: 0x10000AF10, symSize: 0x20 }
  - { offsetInCU: 0x17AD8, offset: 0x17AD8, size: 0x8, addend: 0x0, symName: __ZNSt3__112basic_stringIcNS_11char_traitsIcEENS_9allocatorIcEEE15__set_long_sizeB7v160006Em, symObjAddr: 0xA1C0, symBinAddr: 0x10000AF30, symSize: 0x30 }
  - { offsetInCU: 0x17B0D, offset: 0x17B0D, size: 0x8, addend: 0x0, symName: __ZNSt3__112basic_stringIcNS_11char_traitsIcEENS_9allocatorIcEEE19__get_short_pointerB7v160006Ev, symObjAddr: 0xA1F0, symBinAddr: 0x10000AF60, symSize: 0x30 }
  - { offsetInCU: 0x17B33, offset: 0x17B33, size: 0x8, addend: 0x0, symName: __ZNSt3__112basic_stringIcNS_11char_traitsIcEENS_9allocatorIcEEE16__set_short_sizeB7v160006Em, symObjAddr: 0xA220, symBinAddr: 0x10000AF90, symSize: 0x50 }
  - { offsetInCU: 0x17B68, offset: 0x17B68, size: 0x8, addend: 0x0, symName: __ZNSt3__114pointer_traitsIPcE10pointer_toB7v160006ERc, symObjAddr: 0xA270, symBinAddr: 0x10000AFE0, symSize: 0x10 }
  - { offsetInCU: 0x17B8B, offset: 0x17B8B, size: 0x8, addend: 0x0, symName: __ZNSt3__111char_traitsIcE11to_int_typeEc, symObjAddr: 0xA280, symBinAddr: 0x10000AFF0, symSize: 0x10 }
  - { offsetInCU: 0x17BAE, offset: 0x17BAE, size: 0x8, addend: 0x0, symName: __ZNKSt3__112basic_stringIcNS_11char_traitsIcEENS_9allocatorIcEEE15__get_long_sizeB7v160006Ev, symObjAddr: 0xA290, symBinAddr: 0x10000B000, symSize: 0x20 }
  - { offsetInCU: 0x17BD4, offset: 0x17BD4, size: 0x8, addend: 0x0, symName: __ZNKSt3__112basic_stringIcNS_11char_traitsIcEENS_9allocatorIcEEE16__get_short_sizeB7v160006Ev, symObjAddr: 0xA2B0, symBinAddr: 0x10000B020, symSize: 0x30 }
  - { offsetInCU: 0x17C04, offset: 0x17C04, size: 0x8, addend: 0x0, symName: __ZNSt3__116allocator_traitsINS_9allocatorIcEEE8max_sizeB7v160006IS2_vEEmRKS2_, symObjAddr: 0xA2E0, symBinAddr: 0x10000B050, symSize: 0x20 }
  - { offsetInCU: 0x17C32, offset: 0x17C32, size: 0x8, addend: 0x0, symName: __ZNSt3__114numeric_limitsImE3maxB7v160006Ev, symObjAddr: 0xA300, symBinAddr: 0x10000B070, symSize: 0x10 }
  - { offsetInCU: 0x17C46, offset: 0x17C46, size: 0x8, addend: 0x0, symName: __ZNKSt3__19allocatorIcE8max_sizeB7v160006Ev, symObjAddr: 0xA310, symBinAddr: 0x10000B080, symSize: 0x20 }
  - { offsetInCU: 0x17C6C, offset: 0x17C6C, size: 0x8, addend: 0x0, symName: __ZNSt3__123__libcpp_numeric_limitsImLb1EE3maxB7v160006Ev, symObjAddr: 0xA330, symBinAddr: 0x10000B0A0, symSize: 0x10 }
  - { offsetInCU: 0x17C80, offset: 0x17C80, size: 0x8, addend: 0x0, symName: __ZNKSt3__18ios_base10exceptionsB7v160006Ev, symObjAddr: 0xA340, symBinAddr: 0x10000B0B0, symSize: 0x20 }
  - { offsetInCU: 0x17CA8, offset: 0x17CA8, size: 0x8, addend: 0x0, symName: __ZNSt3__16vectorINS_4pairINS0_IfNS_9allocatorIfEEEENS_12basic_stringIcNS_11char_traitsIcEENS2_IcEEEEEENS2_ISA_EEE22__construct_one_at_endB7v160006IJSA_EEEvDpOT_, symObjAddr: 0xA360, symBinAddr: 0x10000B0D0, symSize: 0x90 }
  - { offsetInCU: 0x17CF7, offset: 0x17CF7, size: 0x8, addend: 0x0, symName: __ZNSt3__16vectorINS_4pairINS0_IfNS_9allocatorIfEEEENS_12basic_stringIcNS_11char_traitsIcEENS2_IcEEEEEENS2_ISA_EEE21__push_back_slow_pathISA_EEvOT_, symObjAddr: 0xA3F0, symBinAddr: 0x10000B160, symSize: 0xCB }
...
